
example.elf:     file format elf32-littleriscv


Disassembly of section .text:

00010074 <_start>:
   10074:	0001c197          	auipc	gp,0x1c
   10078:	14418193          	addi	gp,gp,324 # 2c1b8 <__global_pointer$>
   1007c:	0001c517          	auipc	a0,0x1c
   10080:	9b050513          	addi	a0,a0,-1616 # 2ba2c <_edata>
   10084:	0001c617          	auipc	a2,0x1c
   10088:	a0c60613          	addi	a2,a2,-1524 # 2ba90 <_end>
   1008c:	40a60633          	sub	a2,a2,a0
   10090:	00000593          	li	a1,0
   10094:	464000ef          	jal	ra,104f8 <memset>
   10098:	00000517          	auipc	a0,0x0
   1009c:	34850513          	addi	a0,a0,840 # 103e0 <__libc_fini_array>
   100a0:	2f4000ef          	jal	ra,10394 <atexit>
   100a4:	3b0000ef          	jal	ra,10454 <__libc_init_array>
   100a8:	00012503          	lw	a0,0(sp)
   100ac:	00410593          	addi	a1,sp,4
   100b0:	00000613          	li	a2,0
   100b4:	1dc000ef          	jal	ra,10290 <main>
   100b8:	2f40006f          	j	103ac <exit>

000100bc <_fini>:
   100bc:	00008067          	ret

000100c0 <deregister_tm_clones>:
   100c0:	0002c537          	lui	a0,0x2c
   100c4:	0002c7b7          	lui	a5,0x2c
   100c8:	9b850713          	addi	a4,a0,-1608 # 2b9b8 <__TMC_END__>
   100cc:	9b878793          	addi	a5,a5,-1608 # 2b9b8 <__TMC_END__>
   100d0:	00e78c63          	beq	a5,a4,100e8 <deregister_tm_clones+0x28>
   100d4:	00000337          	lui	t1,0x0
   100d8:	00030313          	mv	t1,t1
   100dc:	00030663          	beqz	t1,100e8 <deregister_tm_clones+0x28>
   100e0:	9b850513          	addi	a0,a0,-1608
   100e4:	00030067          	jr	t1
   100e8:	00008067          	ret

000100ec <register_tm_clones>:
   100ec:	0002c7b7          	lui	a5,0x2c
   100f0:	0002c537          	lui	a0,0x2c
   100f4:	9b878593          	addi	a1,a5,-1608 # 2b9b8 <__TMC_END__>
   100f8:	9b850793          	addi	a5,a0,-1608 # 2b9b8 <__TMC_END__>
   100fc:	40f585b3          	sub	a1,a1,a5
   10100:	4025d593          	srai	a1,a1,0x2
   10104:	01f5d793          	srli	a5,a1,0x1f
   10108:	00b785b3          	add	a1,a5,a1
   1010c:	4015d593          	srai	a1,a1,0x1
   10110:	00058c63          	beqz	a1,10128 <register_tm_clones+0x3c>
   10114:	00000337          	lui	t1,0x0
   10118:	00030313          	mv	t1,t1
   1011c:	00030663          	beqz	t1,10128 <register_tm_clones+0x3c>
   10120:	9b850513          	addi	a0,a0,-1608
   10124:	00030067          	jr	t1
   10128:	00008067          	ret

0001012c <__do_global_dtors_aux>:
   1012c:	8901c703          	lbu	a4,-1904(gp) # 2ba48 <completed.5148>
   10130:	04071663          	bnez	a4,1017c <__do_global_dtors_aux+0x50>
   10134:	ff010113          	addi	sp,sp,-16
   10138:	00812423          	sw	s0,8(sp)
   1013c:	00112623          	sw	ra,12(sp)
   10140:	00078413          	mv	s0,a5
   10144:	f7dff0ef          	jal	ra,100c0 <deregister_tm_clones>
   10148:	000007b7          	lui	a5,0x0
   1014c:	00078793          	mv	a5,a5
   10150:	00078a63          	beqz	a5,10164 <__do_global_dtors_aux+0x38>
   10154:	0002a537          	lui	a0,0x2a
   10158:	56c50513          	addi	a0,a0,1388 # 2a56c <__EH_FRAME_BEGIN__>
   1015c:	ffff0097          	auipc	ra,0xffff0
   10160:	ea4080e7          	jalr	-348(ra) # 0 <_start-0x10074>
   10164:	00100793          	li	a5,1
   10168:	88f18823          	sb	a5,-1904(gp) # 2ba48 <completed.5148>
   1016c:	00c12083          	lw	ra,12(sp)
   10170:	00812403          	lw	s0,8(sp)
   10174:	01010113          	addi	sp,sp,16
   10178:	00008067          	ret
   1017c:	00008067          	ret

00010180 <frame_dummy>:
   10180:	000007b7          	lui	a5,0x0
   10184:	00078793          	mv	a5,a5
   10188:	02078463          	beqz	a5,101b0 <frame_dummy+0x30>
   1018c:	0002a537          	lui	a0,0x2a
   10190:	ff010113          	addi	sp,sp,-16
   10194:	89418593          	addi	a1,gp,-1900 # 2ba4c <object.5153>
   10198:	56c50513          	addi	a0,a0,1388 # 2a56c <__EH_FRAME_BEGIN__>
   1019c:	00112623          	sw	ra,12(sp)
   101a0:	ffff0097          	auipc	ra,0xffff0
   101a4:	e60080e7          	jalr	-416(ra) # 0 <_start-0x10074>
   101a8:	00c12083          	lw	ra,12(sp)
   101ac:	01010113          	addi	sp,sp,16
   101b0:	f3dff06f          	j	100ec <register_tm_clones>

000101b4 <process>:
   101b4:	fd010113          	addi	sp,sp,-48
   101b8:	02812623          	sw	s0,44(sp)
   101bc:	03010413          	addi	s0,sp,48
   101c0:	fca42e23          	sw	a0,-36(s0)
   101c4:	fcb42c23          	sw	a1,-40(s0)
   101c8:	fcc42a23          	sw	a2,-44(s0)
   101cc:	fcd42823          	sw	a3,-48(s0)
   101d0:	fe042623          	sw	zero,-20(s0)
   101d4:	0a00006f          	j	10274 <process+0xc0>
   101d8:	fec42783          	lw	a5,-20(s0)
   101dc:	00279793          	slli	a5,a5,0x2
   101e0:	fd042703          	lw	a4,-48(s0)
   101e4:	00f707b3          	add	a5,a4,a5
   101e8:	0007a023          	sw	zero,0(a5) # 0 <_start-0x10074>
   101ec:	fe042423          	sw	zero,-24(s0)
   101f0:	06c0006f          	j	1025c <process+0xa8>
   101f4:	fec42783          	lw	a5,-20(s0)
   101f8:	00279793          	slli	a5,a5,0x2
   101fc:	fd042703          	lw	a4,-48(s0)
   10200:	00f707b3          	add	a5,a4,a5
   10204:	0007a683          	lw	a3,0(a5)
   10208:	fec42703          	lw	a4,-20(s0)
   1020c:	00070793          	mv	a5,a4
   10210:	00179793          	slli	a5,a5,0x1
   10214:	00e787b3          	add	a5,a5,a4
   10218:	00279793          	slli	a5,a5,0x2
   1021c:	00078713          	mv	a4,a5
   10220:	fd442783          	lw	a5,-44(s0)
   10224:	00e78733          	add	a4,a5,a4
   10228:	fe842783          	lw	a5,-24(s0)
   1022c:	00279793          	slli	a5,a5,0x2
   10230:	00f707b3          	add	a5,a4,a5
   10234:	0007a703          	lw	a4,0(a5)
   10238:	fec42783          	lw	a5,-20(s0)
   1023c:	00279793          	slli	a5,a5,0x2
   10240:	fd042603          	lw	a2,-48(s0)
   10244:	00f607b3          	add	a5,a2,a5
   10248:	00e68733          	add	a4,a3,a4
   1024c:	00e7a023          	sw	a4,0(a5)
   10250:	fe842783          	lw	a5,-24(s0)
   10254:	00178793          	addi	a5,a5,1
   10258:	fef42423          	sw	a5,-24(s0)
   1025c:	fe842703          	lw	a4,-24(s0)
   10260:	fdc42783          	lw	a5,-36(s0)
   10264:	f8f748e3          	blt	a4,a5,101f4 <process+0x40>
   10268:	fec42783          	lw	a5,-20(s0)
   1026c:	00178793          	addi	a5,a5,1
   10270:	fef42623          	sw	a5,-20(s0)
   10274:	fec42703          	lw	a4,-20(s0)
   10278:	fd842783          	lw	a5,-40(s0)
   1027c:	f4f74ee3          	blt	a4,a5,101d8 <process+0x24>
   10280:	00000013          	nop
   10284:	02c12403          	lw	s0,44(sp)
   10288:	03010113          	addi	sp,sp,48
   1028c:	00008067          	ret

00010290 <main>:
   10290:	f9010113          	addi	sp,sp,-112
   10294:	06112623          	sw	ra,108(sp)
   10298:	06812423          	sw	s0,104(sp)
   1029c:	07010413          	addi	s0,sp,112
   102a0:	f8a42e23          	sw	a0,-100(s0)
   102a4:	f8b42c23          	sw	a1,-104(s0)
   102a8:	fe042623          	sw	zero,-20(s0)
   102ac:	0640006f          	j	10310 <main+0x80>
   102b0:	fe042423          	sw	zero,-24(s0)
   102b4:	0440006f          	j	102f8 <main+0x68>
   102b8:	fb440693          	addi	a3,s0,-76
   102bc:	fec42703          	lw	a4,-20(s0)
   102c0:	00070793          	mv	a5,a4
   102c4:	00179793          	slli	a5,a5,0x1
   102c8:	00e787b3          	add	a5,a5,a4
   102cc:	fe842703          	lw	a4,-24(s0)
   102d0:	00e787b3          	add	a5,a5,a4
   102d4:	00279793          	slli	a5,a5,0x2
   102d8:	00f687b3          	add	a5,a3,a5
   102dc:	00078593          	mv	a1,a5
   102e0:	000297b7          	lui	a5,0x29
   102e4:	73078513          	addi	a0,a5,1840 # 29730 <__clzsi2+0x5c>
   102e8:	378000ef          	jal	ra,10660 <scanf>
   102ec:	fe842783          	lw	a5,-24(s0)
   102f0:	00178793          	addi	a5,a5,1
   102f4:	fef42423          	sw	a5,-24(s0)
   102f8:	fe842703          	lw	a4,-24(s0)
   102fc:	00200793          	li	a5,2
   10300:	fae7dce3          	ble	a4,a5,102b8 <main+0x28>
   10304:	fec42783          	lw	a5,-20(s0)
   10308:	00178793          	addi	a5,a5,1
   1030c:	fef42623          	sw	a5,-20(s0)
   10310:	fec42703          	lw	a4,-20(s0)
   10314:	00300793          	li	a5,3
   10318:	f8e7dce3          	ble	a4,a5,102b0 <main+0x20>
   1031c:	fa440713          	addi	a4,s0,-92
   10320:	fb440793          	addi	a5,s0,-76
   10324:	00070693          	mv	a3,a4
   10328:	00078613          	mv	a2,a5
   1032c:	00400593          	li	a1,4
   10330:	00300513          	li	a0,3
   10334:	e81ff0ef          	jal	ra,101b4 <process>
   10338:	fe042223          	sw	zero,-28(s0)
   1033c:	0340006f          	j	10370 <main+0xe0>
   10340:	fe442783          	lw	a5,-28(s0)
   10344:	00279793          	slli	a5,a5,0x2
   10348:	ff040713          	addi	a4,s0,-16
   1034c:	00f707b3          	add	a5,a4,a5
   10350:	fb47a783          	lw	a5,-76(a5)
   10354:	00078593          	mv	a1,a5
   10358:	000297b7          	lui	a5,0x29
   1035c:	73478513          	addi	a0,a5,1844 # 29734 <__clzsi2+0x60>
   10360:	2b4000ef          	jal	ra,10614 <printf>
   10364:	fe442783          	lw	a5,-28(s0)
   10368:	00178793          	addi	a5,a5,1
   1036c:	fef42223          	sw	a5,-28(s0)
   10370:	fe442703          	lw	a4,-28(s0)
   10374:	00300793          	li	a5,3
   10378:	fce7d4e3          	ble	a4,a5,10340 <main+0xb0>
   1037c:	00000793          	li	a5,0
   10380:	00078513          	mv	a0,a5
   10384:	06c12083          	lw	ra,108(sp)
   10388:	06812403          	lw	s0,104(sp)
   1038c:	07010113          	addi	sp,sp,112
   10390:	00008067          	ret

00010394 <atexit>:
   10394:	00050593          	mv	a1,a0
   10398:	00000693          	li	a3,0
   1039c:	00000613          	li	a2,0
   103a0:	00000513          	li	a0,0
   103a4:	18d0306f          	j	13d30 <__register_exitproc>
   103a8:	0000                	unimp
	...

000103ac <exit>:
   103ac:	ff010113          	addi	sp,sp,-16
   103b0:	00000593          	li	a1,0
   103b4:	00812423          	sw	s0,8(sp)
   103b8:	00112623          	sw	ra,12(sp)
   103bc:	00050413          	mv	s0,a0
   103c0:	1f1030ef          	jal	ra,13db0 <__call_exitprocs>
   103c4:	8641a503          	lw	a0,-1948(gp) # 2ba1c <_global_impure_ptr>
   103c8:	03c52783          	lw	a5,60(a0)
   103cc:	00078463          	beqz	a5,103d4 <exit+0x28>
   103d0:	000780e7          	jalr	a5
   103d4:	00040513          	mv	a0,s0
   103d8:	245120ef          	jal	ra,22e1c <_exit>
   103dc:	0000                	unimp
	...

000103e0 <__libc_fini_array>:
   103e0:	ff010113          	addi	sp,sp,-16
   103e4:	0002b7b7          	lui	a5,0x2b
   103e8:	0002b737          	lui	a4,0x2b
   103ec:	00812423          	sw	s0,8(sp)
   103f0:	00470713          	addi	a4,a4,4 # 2b004 <__init_array_end>
   103f4:	00878413          	addi	s0,a5,8 # 2b008 <__fini_array_end>
   103f8:	40e40433          	sub	s0,s0,a4
   103fc:	00912223          	sw	s1,4(sp)
   10400:	01212023          	sw	s2,0(sp)
   10404:	00112623          	sw	ra,12(sp)
   10408:	40245413          	srai	s0,s0,0x2
   1040c:	00000493          	li	s1,0
   10410:	00878913          	addi	s2,a5,8
   10414:	00941e63          	bne	s0,s1,10430 <__libc_fini_array+0x50>
   10418:	00812403          	lw	s0,8(sp)
   1041c:	00c12083          	lw	ra,12(sp)
   10420:	00412483          	lw	s1,4(sp)
   10424:	00012903          	lw	s2,0(sp)
   10428:	01010113          	addi	sp,sp,16
   1042c:	c91ff06f          	j	100bc <_fini>
   10430:	ffc00593          	li	a1,-4
   10434:	00048513          	mv	a0,s1
   10438:	0e0190ef          	jal	ra,29518 <__mulsi3>
   1043c:	00a90533          	add	a0,s2,a0
   10440:	ffc52783          	lw	a5,-4(a0)
   10444:	00148493          	addi	s1,s1,1
   10448:	000780e7          	jalr	a5
   1044c:	fc9ff06f          	j	10414 <__libc_fini_array+0x34>
   10450:	0000                	unimp
	...

00010454 <__libc_init_array>:
   10454:	ff010113          	addi	sp,sp,-16
   10458:	00812423          	sw	s0,8(sp)
   1045c:	00912223          	sw	s1,4(sp)
   10460:	0002b437          	lui	s0,0x2b
   10464:	0002b4b7          	lui	s1,0x2b
   10468:	00048793          	mv	a5,s1
   1046c:	00040413          	mv	s0,s0
   10470:	40f40433          	sub	s0,s0,a5
   10474:	01212023          	sw	s2,0(sp)
   10478:	00112623          	sw	ra,12(sp)
   1047c:	40245413          	srai	s0,s0,0x2
   10480:	00048493          	mv	s1,s1
   10484:	00000913          	li	s2,0
   10488:	04891263          	bne	s2,s0,104cc <__libc_init_array+0x78>
   1048c:	0002b4b7          	lui	s1,0x2b
   10490:	c2dff0ef          	jal	ra,100bc <_fini>
   10494:	0002b437          	lui	s0,0x2b
   10498:	00048793          	mv	a5,s1
   1049c:	00440413          	addi	s0,s0,4 # 2b004 <__init_array_end>
   104a0:	40f40433          	sub	s0,s0,a5
   104a4:	40245413          	srai	s0,s0,0x2
   104a8:	00048493          	mv	s1,s1
   104ac:	00000913          	li	s2,0
   104b0:	02891863          	bne	s2,s0,104e0 <__libc_init_array+0x8c>
   104b4:	00c12083          	lw	ra,12(sp)
   104b8:	00812403          	lw	s0,8(sp)
   104bc:	00412483          	lw	s1,4(sp)
   104c0:	00012903          	lw	s2,0(sp)
   104c4:	01010113          	addi	sp,sp,16
   104c8:	00008067          	ret
   104cc:	0004a783          	lw	a5,0(s1) # 2b000 <__frame_dummy_init_array_entry>
   104d0:	00190913          	addi	s2,s2,1
   104d4:	00448493          	addi	s1,s1,4
   104d8:	000780e7          	jalr	a5
   104dc:	fadff06f          	j	10488 <__libc_init_array+0x34>
   104e0:	0004a783          	lw	a5,0(s1)
   104e4:	00190913          	addi	s2,s2,1
   104e8:	00448493          	addi	s1,s1,4
   104ec:	000780e7          	jalr	a5
   104f0:	fc1ff06f          	j	104b0 <__libc_init_array+0x5c>
   104f4:	0000                	unimp
	...

000104f8 <memset>:
   104f8:	00f00313          	li	t1,15
   104fc:	00050713          	mv	a4,a0
   10500:	02c37e63          	bleu	a2,t1,1053c <memset+0x44>
   10504:	00f77793          	andi	a5,a4,15
   10508:	0a079063          	bnez	a5,105a8 <memset+0xb0>
   1050c:	08059263          	bnez	a1,10590 <memset+0x98>
   10510:	ff067693          	andi	a3,a2,-16
   10514:	00f67613          	andi	a2,a2,15
   10518:	00e686b3          	add	a3,a3,a4
   1051c:	00b72023          	sw	a1,0(a4)
   10520:	00b72223          	sw	a1,4(a4)
   10524:	00b72423          	sw	a1,8(a4)
   10528:	00b72623          	sw	a1,12(a4)
   1052c:	01070713          	addi	a4,a4,16
   10530:	fed766e3          	bltu	a4,a3,1051c <memset+0x24>
   10534:	00061463          	bnez	a2,1053c <memset+0x44>
   10538:	00008067          	ret
   1053c:	40c306b3          	sub	a3,t1,a2
   10540:	00269693          	slli	a3,a3,0x2
   10544:	00000297          	auipc	t0,0x0
   10548:	005686b3          	add	a3,a3,t0
   1054c:	00c68067          	jr	12(a3)
   10550:	00b70723          	sb	a1,14(a4)
   10554:	00b706a3          	sb	a1,13(a4)
   10558:	00b70623          	sb	a1,12(a4)
   1055c:	00b705a3          	sb	a1,11(a4)
   10560:	00b70523          	sb	a1,10(a4)
   10564:	00b704a3          	sb	a1,9(a4)
   10568:	00b70423          	sb	a1,8(a4)
   1056c:	00b703a3          	sb	a1,7(a4)
   10570:	00b70323          	sb	a1,6(a4)
   10574:	00b702a3          	sb	a1,5(a4)
   10578:	00b70223          	sb	a1,4(a4)
   1057c:	00b701a3          	sb	a1,3(a4)
   10580:	00b70123          	sb	a1,2(a4)
   10584:	00b700a3          	sb	a1,1(a4)
   10588:	00b70023          	sb	a1,0(a4)
   1058c:	00008067          	ret
   10590:	0ff5f593          	andi	a1,a1,255
   10594:	00859693          	slli	a3,a1,0x8
   10598:	00d5e5b3          	or	a1,a1,a3
   1059c:	01059693          	slli	a3,a1,0x10
   105a0:	00d5e5b3          	or	a1,a1,a3
   105a4:	f6dff06f          	j	10510 <memset+0x18>
   105a8:	00279693          	slli	a3,a5,0x2
   105ac:	00000297          	auipc	t0,0x0
   105b0:	005686b3          	add	a3,a3,t0
   105b4:	00008293          	mv	t0,ra
   105b8:	fa0680e7          	jalr	-96(a3)
   105bc:	00028093          	mv	ra,t0
   105c0:	ff078793          	addi	a5,a5,-16
   105c4:	40f70733          	sub	a4,a4,a5
   105c8:	00f60633          	add	a2,a2,a5
   105cc:	f6c378e3          	bleu	a2,t1,1053c <memset+0x44>
   105d0:	f3dff06f          	j	1050c <memset+0x14>

000105d4 <_printf_r>:
   105d4:	fc010113          	addi	sp,sp,-64
   105d8:	02c12423          	sw	a2,40(sp)
   105dc:	02d12623          	sw	a3,44(sp)
   105e0:	02e12823          	sw	a4,48(sp)
   105e4:	02f12a23          	sw	a5,52(sp)
   105e8:	03012c23          	sw	a6,56(sp)
   105ec:	03112e23          	sw	a7,60(sp)
   105f0:	00058613          	mv	a2,a1
   105f4:	00852583          	lw	a1,8(a0)
   105f8:	02810693          	addi	a3,sp,40
   105fc:	00112e23          	sw	ra,28(sp)
   10600:	00d12623          	sw	a3,12(sp)
   10604:	0e8000ef          	jal	ra,106ec <_vfprintf_r>
   10608:	01c12083          	lw	ra,28(sp)
   1060c:	04010113          	addi	sp,sp,64
   10610:	00008067          	ret

00010614 <printf>:
   10614:	fc010113          	addi	sp,sp,-64
   10618:	02f12a23          	sw	a5,52(sp)
   1061c:	8681a783          	lw	a5,-1944(gp) # 2ba20 <_impure_ptr>
   10620:	02c12423          	sw	a2,40(sp)
   10624:	02d12623          	sw	a3,44(sp)
   10628:	02b12223          	sw	a1,36(sp)
   1062c:	02e12823          	sw	a4,48(sp)
   10630:	03012c23          	sw	a6,56(sp)
   10634:	03112e23          	sw	a7,60(sp)
   10638:	0087a583          	lw	a1,8(a5)
   1063c:	02410693          	addi	a3,sp,36
   10640:	00050613          	mv	a2,a0
   10644:	00078513          	mv	a0,a5
   10648:	00112e23          	sw	ra,28(sp)
   1064c:	00d12623          	sw	a3,12(sp)
   10650:	09c000ef          	jal	ra,106ec <_vfprintf_r>
   10654:	01c12083          	lw	ra,28(sp)
   10658:	04010113          	addi	sp,sp,64
   1065c:	00008067          	ret

00010660 <scanf>:
   10660:	fc010113          	addi	sp,sp,-64
   10664:	02f12a23          	sw	a5,52(sp)
   10668:	8681a783          	lw	a5,-1944(gp) # 2ba20 <_impure_ptr>
   1066c:	02c12423          	sw	a2,40(sp)
   10670:	02d12623          	sw	a3,44(sp)
   10674:	02b12223          	sw	a1,36(sp)
   10678:	02e12823          	sw	a4,48(sp)
   1067c:	03012c23          	sw	a6,56(sp)
   10680:	03112e23          	sw	a7,60(sp)
   10684:	0047a583          	lw	a1,4(a5)
   10688:	02410693          	addi	a3,sp,36
   1068c:	00050613          	mv	a2,a0
   10690:	00078513          	mv	a0,a5
   10694:	00112e23          	sw	ra,28(sp)
   10698:	00d12623          	sw	a3,12(sp)
   1069c:	510030ef          	jal	ra,13bac <_vfscanf_r>
   106a0:	01c12083          	lw	ra,28(sp)
   106a4:	04010113          	addi	sp,sp,64
   106a8:	00008067          	ret

000106ac <_scanf_r>:
   106ac:	fc010113          	addi	sp,sp,-64
   106b0:	02c12423          	sw	a2,40(sp)
   106b4:	02d12623          	sw	a3,44(sp)
   106b8:	02e12823          	sw	a4,48(sp)
   106bc:	02f12a23          	sw	a5,52(sp)
   106c0:	03012c23          	sw	a6,56(sp)
   106c4:	03112e23          	sw	a7,60(sp)
   106c8:	00058613          	mv	a2,a1
   106cc:	00452583          	lw	a1,4(a0)
   106d0:	02810693          	addi	a3,sp,40
   106d4:	00112e23          	sw	ra,28(sp)
   106d8:	00d12623          	sw	a3,12(sp)
   106dc:	4d0030ef          	jal	ra,13bac <_vfscanf_r>
   106e0:	01c12083          	lw	ra,28(sp)
   106e4:	04010113          	addi	sp,sp,64
   106e8:	00008067          	ret

000106ec <_vfprintf_r>:
   106ec:	e1010113          	addi	sp,sp,-496
   106f0:	1e112623          	sw	ra,492(sp)
   106f4:	1e912223          	sw	s1,484(sp)
   106f8:	1f212023          	sw	s2,480(sp)
   106fc:	1d312e23          	sw	s3,476(sp)
   10700:	1d812423          	sw	s8,456(sp)
   10704:	00058913          	mv	s2,a1
   10708:	00060493          	mv	s1,a2
   1070c:	00068c13          	mv	s8,a3
   10710:	1e812423          	sw	s0,488(sp)
   10714:	1d412c23          	sw	s4,472(sp)
   10718:	1d512a23          	sw	s5,468(sp)
   1071c:	1d612823          	sw	s6,464(sp)
   10720:	1d712623          	sw	s7,460(sp)
   10724:	1d912223          	sw	s9,452(sp)
   10728:	1da12023          	sw	s10,448(sp)
   1072c:	1bb12e23          	sw	s11,444(sp)
   10730:	00050993          	mv	s3,a0
   10734:	3b8060ef          	jal	ra,16aec <_localeconv_r>
   10738:	00052783          	lw	a5,0(a0)
   1073c:	00078513          	mv	a0,a5
   10740:	02f12c23          	sw	a5,56(sp)
   10744:	570080ef          	jal	ra,18cb4 <strlen>
   10748:	02a12223          	sw	a0,36(sp)
   1074c:	0e012823          	sw	zero,240(sp)
   10750:	0e012a23          	sw	zero,244(sp)
   10754:	0e012c23          	sw	zero,248(sp)
   10758:	0e012e23          	sw	zero,252(sp)
   1075c:	00098a63          	beqz	s3,10770 <_vfprintf_r+0x84>
   10760:	0389a783          	lw	a5,56(s3)
   10764:	00079663          	bnez	a5,10770 <_vfprintf_r+0x84>
   10768:	00098513          	mv	a0,s3
   1076c:	2fd030ef          	jal	ra,14268 <__sinit>
   10770:	00c91783          	lh	a5,12(s2)
   10774:	01279713          	slli	a4,a5,0x12
   10778:	02074263          	bltz	a4,1079c <_vfprintf_r+0xb0>
   1077c:	000026b7          	lui	a3,0x2
   10780:	06492703          	lw	a4,100(s2)
   10784:	00d7e7b3          	or	a5,a5,a3
   10788:	00f91623          	sh	a5,12(s2)
   1078c:	ffffe7b7          	lui	a5,0xffffe
   10790:	fff78793          	addi	a5,a5,-1 # ffffdfff <__global_pointer$+0xfffd1e47>
   10794:	00f777b3          	and	a5,a4,a5
   10798:	06f92223          	sw	a5,100(s2)
   1079c:	00c95783          	lhu	a5,12(s2)
   107a0:	0087f793          	andi	a5,a5,8
   107a4:	06078e63          	beqz	a5,10820 <_vfprintf_r+0x134>
   107a8:	01092783          	lw	a5,16(s2)
   107ac:	06078a63          	beqz	a5,10820 <_vfprintf_r+0x134>
   107b0:	00c95783          	lhu	a5,12(s2)
   107b4:	00a00713          	li	a4,10
   107b8:	01a7f793          	andi	a5,a5,26
   107bc:	08e79063          	bne	a5,a4,1083c <_vfprintf_r+0x150>
   107c0:	00e91783          	lh	a5,14(s2)
   107c4:	0607cc63          	bltz	a5,1083c <_vfprintf_r+0x150>
   107c8:	000c0693          	mv	a3,s8
   107cc:	00048613          	mv	a2,s1
   107d0:	00090593          	mv	a1,s2
   107d4:	00098513          	mv	a0,s3
   107d8:	755010ef          	jal	ra,1272c <__sbprintf>
   107dc:	02a12423          	sw	a0,40(sp)
   107e0:	1ec12083          	lw	ra,492(sp)
   107e4:	1e812403          	lw	s0,488(sp)
   107e8:	02812503          	lw	a0,40(sp)
   107ec:	1e412483          	lw	s1,484(sp)
   107f0:	1e012903          	lw	s2,480(sp)
   107f4:	1dc12983          	lw	s3,476(sp)
   107f8:	1d812a03          	lw	s4,472(sp)
   107fc:	1d412a83          	lw	s5,468(sp)
   10800:	1d012b03          	lw	s6,464(sp)
   10804:	1cc12b83          	lw	s7,460(sp)
   10808:	1c812c03          	lw	s8,456(sp)
   1080c:	1c412c83          	lw	s9,452(sp)
   10810:	1c012d03          	lw	s10,448(sp)
   10814:	1bc12d83          	lw	s11,444(sp)
   10818:	1f010113          	addi	sp,sp,496
   1081c:	00008067          	ret
   10820:	00090593          	mv	a1,s2
   10824:	00098513          	mv	a0,s3
   10828:	3d0030ef          	jal	ra,13bf8 <__swsetup_r>
   1082c:	f80502e3          	beqz	a0,107b0 <_vfprintf_r+0xc4>
   10830:	fff00793          	li	a5,-1
   10834:	02f12423          	sw	a5,40(sp)
   10838:	fa9ff06f          	j	107e0 <_vfprintf_r+0xf4>
   1083c:	000297b7          	lui	a5,0x29
   10840:	73878793          	addi	a5,a5,1848 # 29738 <__clzsi2+0x64>
   10844:	06f12023          	sw	a5,96(sp)
   10848:	0002a7b7          	lui	a5,0x2a
   1084c:	10c10893          	addi	a7,sp,268
   10850:	8b478793          	addi	a5,a5,-1868 # 298b4 <zeroes.4377>
   10854:	0f112223          	sw	a7,228(sp)
   10858:	0e012623          	sw	zero,236(sp)
   1085c:	0e012423          	sw	zero,232(sp)
   10860:	00000a13          	li	s4,0
   10864:	00088d13          	mv	s10,a7
   10868:	04012223          	sw	zero,68(sp)
   1086c:	04012023          	sw	zero,64(sp)
   10870:	00012a23          	sw	zero,20(sp)
   10874:	02012a23          	sw	zero,52(sp)
   10878:	02012e23          	sw	zero,60(sp)
   1087c:	02012423          	sw	zero,40(sp)
   10880:	00f12c23          	sw	a5,24(sp)
   10884:	00048413          	mv	s0,s1
   10888:	02500713          	li	a4,37
   1088c:	00044783          	lbu	a5,0(s0)
   10890:	00078463          	beqz	a5,10898 <_vfprintf_r+0x1ac>
   10894:	0ce79263          	bne	a5,a4,10958 <_vfprintf_r+0x26c>
   10898:	40940ab3          	sub	s5,s0,s1
   1089c:	040a8a63          	beqz	s5,108f0 <_vfprintf_r+0x204>
   108a0:	0ec12783          	lw	a5,236(sp)
   108a4:	009d2023          	sw	s1,0(s10)
   108a8:	015d2223          	sw	s5,4(s10)
   108ac:	015787b3          	add	a5,a5,s5
   108b0:	0ef12623          	sw	a5,236(sp)
   108b4:	0e812783          	lw	a5,232(sp)
   108b8:	00700713          	li	a4,7
   108bc:	008d0d13          	addi	s10,s10,8
   108c0:	00178793          	addi	a5,a5,1
   108c4:	0ef12423          	sw	a5,232(sp)
   108c8:	00f75e63          	ble	a5,a4,108e4 <_vfprintf_r+0x1f8>
   108cc:	0e410613          	addi	a2,sp,228
   108d0:	00090593          	mv	a1,s2
   108d4:	00098513          	mv	a0,s3
   108d8:	0f10c0ef          	jal	ra,1d1c8 <__sprint_r>
   108dc:	78051863          	bnez	a0,1106c <_vfprintf_r+0x980>
   108e0:	10c10d13          	addi	s10,sp,268
   108e4:	02812783          	lw	a5,40(sp)
   108e8:	015787b3          	add	a5,a5,s5
   108ec:	02f12423          	sw	a5,40(sp)
   108f0:	00044783          	lbu	a5,0(s0)
   108f4:	00079463          	bnez	a5,108fc <_vfprintf_r+0x210>
   108f8:	6010106f          	j	126f8 <_vfprintf_r+0x200c>
   108fc:	00140793          	addi	a5,s0,1
   10900:	02f12023          	sw	a5,32(sp)
   10904:	0c0103a3          	sb	zero,199(sp)
   10908:	fff00b13          	li	s6,-1
   1090c:	02012623          	sw	zero,44(sp)
   10910:	00000413          	li	s0,0
   10914:	00900a93          	li	s5,9
   10918:	05a00b93          	li	s7,90
   1091c:	02012783          	lw	a5,32(sp)
   10920:	0007c783          	lbu	a5,0(a5)
   10924:	00f12623          	sw	a5,12(sp)
   10928:	02012783          	lw	a5,32(sp)
   1092c:	00178793          	addi	a5,a5,1
   10930:	02f12023          	sw	a5,32(sp)
   10934:	00c12783          	lw	a5,12(sp)
   10938:	fe078793          	addi	a5,a5,-32
   1093c:	00fbf463          	bleu	a5,s7,10944 <_vfprintf_r+0x258>
   10940:	2bc0106f          	j	11bfc <_vfprintf_r+0x1510>
   10944:	06012703          	lw	a4,96(sp)
   10948:	00279793          	slli	a5,a5,0x2
   1094c:	00e787b3          	add	a5,a5,a4
   10950:	0007a783          	lw	a5,0(a5)
   10954:	00078067          	jr	a5
   10958:	00140413          	addi	s0,s0,1
   1095c:	f31ff06f          	j	1088c <_vfprintf_r+0x1a0>
   10960:	0002a7b7          	lui	a5,0x2a
   10964:	92478793          	addi	a5,a5,-1756 # 29924 <zeroes.4377+0x70>
   10968:	04f12223          	sw	a5,68(sp)
   1096c:	02047793          	andi	a5,s0,32
   10970:	00079463          	bnez	a5,10978 <_vfprintf_r+0x28c>
   10974:	0bc0106f          	j	11a30 <_vfprintf_r+0x1344>
   10978:	007c0c13          	addi	s8,s8,7
   1097c:	ff8c7c13          	andi	s8,s8,-8
   10980:	008c0793          	addi	a5,s8,8
   10984:	000c2c83          	lw	s9,0(s8)
   10988:	004c2c03          	lw	s8,4(s8)
   1098c:	00f12e23          	sw	a5,28(sp)
   10990:	00147793          	andi	a5,s0,1
   10994:	02078063          	beqz	a5,109b4 <_vfprintf_r+0x2c8>
   10998:	018ce7b3          	or	a5,s9,s8
   1099c:	00078c63          	beqz	a5,109b4 <_vfprintf_r+0x2c8>
   109a0:	03000793          	li	a5,48
   109a4:	0cf10423          	sb	a5,200(sp)
   109a8:	00c14783          	lbu	a5,12(sp)
   109ac:	00246413          	ori	s0,s0,2
   109b0:	0cf104a3          	sb	a5,201(sp)
   109b4:	bff47413          	andi	s0,s0,-1025
   109b8:	00200793          	li	a5,2
   109bc:	7110006f          	j	118cc <_vfprintf_r+0x11e0>
   109c0:	00098513          	mv	a0,s3
   109c4:	128060ef          	jal	ra,16aec <_localeconv_r>
   109c8:	00452783          	lw	a5,4(a0)
   109cc:	00078513          	mv	a0,a5
   109d0:	02f12e23          	sw	a5,60(sp)
   109d4:	2e0080ef          	jal	ra,18cb4 <strlen>
   109d8:	02a12a23          	sw	a0,52(sp)
   109dc:	00098513          	mv	a0,s3
   109e0:	10c060ef          	jal	ra,16aec <_localeconv_r>
   109e4:	00852783          	lw	a5,8(a0)
   109e8:	00f12a23          	sw	a5,20(sp)
   109ec:	03412783          	lw	a5,52(sp)
   109f0:	f20784e3          	beqz	a5,10918 <_vfprintf_r+0x22c>
   109f4:	01412783          	lw	a5,20(sp)
   109f8:	f20780e3          	beqz	a5,10918 <_vfprintf_r+0x22c>
   109fc:	0007c783          	lbu	a5,0(a5)
   10a00:	f0078ce3          	beqz	a5,10918 <_vfprintf_r+0x22c>
   10a04:	40046413          	ori	s0,s0,1024
   10a08:	f11ff06f          	j	10918 <_vfprintf_r+0x22c>
   10a0c:	0c714783          	lbu	a5,199(sp)
   10a10:	f00794e3          	bnez	a5,10918 <_vfprintf_r+0x22c>
   10a14:	02000793          	li	a5,32
   10a18:	0cf103a3          	sb	a5,199(sp)
   10a1c:	efdff06f          	j	10918 <_vfprintf_r+0x22c>
   10a20:	00146413          	ori	s0,s0,1
   10a24:	ef5ff06f          	j	10918 <_vfprintf_r+0x22c>
   10a28:	000c2783          	lw	a5,0(s8)
   10a2c:	004c0c13          	addi	s8,s8,4
   10a30:	02f12623          	sw	a5,44(sp)
   10a34:	ee07d2e3          	bgez	a5,10918 <_vfprintf_r+0x22c>
   10a38:	40f007b3          	neg	a5,a5
   10a3c:	02f12623          	sw	a5,44(sp)
   10a40:	00446413          	ori	s0,s0,4
   10a44:	ed5ff06f          	j	10918 <_vfprintf_r+0x22c>
   10a48:	02b00793          	li	a5,43
   10a4c:	fcdff06f          	j	10a18 <_vfprintf_r+0x32c>
   10a50:	02012783          	lw	a5,32(sp)
   10a54:	02a00713          	li	a4,42
   10a58:	00178c93          	addi	s9,a5,1
   10a5c:	0007c783          	lbu	a5,0(a5)
   10a60:	00f12623          	sw	a5,12(sp)
   10a64:	04e79863          	bne	a5,a4,10ab4 <_vfprintf_r+0x3c8>
   10a68:	000c2b03          	lw	s6,0(s8)
   10a6c:	004c0793          	addi	a5,s8,4
   10a70:	000b5463          	bgez	s6,10a78 <_vfprintf_r+0x38c>
   10a74:	fff00b13          	li	s6,-1
   10a78:	00078c13          	mv	s8,a5
   10a7c:	03912023          	sw	s9,32(sp)
   10a80:	e99ff06f          	j	10918 <_vfprintf_r+0x22c>
   10a84:	000b0513          	mv	a0,s6
   10a88:	00a00593          	li	a1,10
   10a8c:	28d180ef          	jal	ra,29518 <__mulsi3>
   10a90:	001c8c93          	addi	s9,s9,1
   10a94:	fffcc783          	lbu	a5,-1(s9)
   10a98:	01b50b33          	add	s6,a0,s11
   10a9c:	00f12623          	sw	a5,12(sp)
   10aa0:	00c12783          	lw	a5,12(sp)
   10aa4:	fd078d93          	addi	s11,a5,-48
   10aa8:	fdbafee3          	bleu	s11,s5,10a84 <_vfprintf_r+0x398>
   10aac:	03912023          	sw	s9,32(sp)
   10ab0:	e85ff06f          	j	10934 <_vfprintf_r+0x248>
   10ab4:	00000b13          	li	s6,0
   10ab8:	fe9ff06f          	j	10aa0 <_vfprintf_r+0x3b4>
   10abc:	08046413          	ori	s0,s0,128
   10ac0:	e59ff06f          	j	10918 <_vfprintf_r+0x22c>
   10ac4:	02012c83          	lw	s9,32(sp)
   10ac8:	02012623          	sw	zero,44(sp)
   10acc:	02c12503          	lw	a0,44(sp)
   10ad0:	00a00593          	li	a1,10
   10ad4:	001c8c93          	addi	s9,s9,1
   10ad8:	241180ef          	jal	ra,29518 <__mulsi3>
   10adc:	00c12783          	lw	a5,12(sp)
   10ae0:	fd078793          	addi	a5,a5,-48
   10ae4:	00a787b3          	add	a5,a5,a0
   10ae8:	02f12623          	sw	a5,44(sp)
   10aec:	fffcc783          	lbu	a5,-1(s9)
   10af0:	00f12623          	sw	a5,12(sp)
   10af4:	fd078793          	addi	a5,a5,-48
   10af8:	fcfafae3          	bleu	a5,s5,10acc <_vfprintf_r+0x3e0>
   10afc:	fb1ff06f          	j	10aac <_vfprintf_r+0x3c0>
   10b00:	00846413          	ori	s0,s0,8
   10b04:	e15ff06f          	j	10918 <_vfprintf_r+0x22c>
   10b08:	02012783          	lw	a5,32(sp)
   10b0c:	0007c703          	lbu	a4,0(a5)
   10b10:	06800793          	li	a5,104
   10b14:	00f71c63          	bne	a4,a5,10b2c <_vfprintf_r+0x440>
   10b18:	02012783          	lw	a5,32(sp)
   10b1c:	20046413          	ori	s0,s0,512
   10b20:	00178793          	addi	a5,a5,1
   10b24:	02f12023          	sw	a5,32(sp)
   10b28:	df1ff06f          	j	10918 <_vfprintf_r+0x22c>
   10b2c:	04046413          	ori	s0,s0,64
   10b30:	de9ff06f          	j	10918 <_vfprintf_r+0x22c>
   10b34:	02012783          	lw	a5,32(sp)
   10b38:	0007c703          	lbu	a4,0(a5)
   10b3c:	06c00793          	li	a5,108
   10b40:	00f71c63          	bne	a4,a5,10b58 <_vfprintf_r+0x46c>
   10b44:	02012783          	lw	a5,32(sp)
   10b48:	00178793          	addi	a5,a5,1
   10b4c:	02f12023          	sw	a5,32(sp)
   10b50:	02046413          	ori	s0,s0,32
   10b54:	dc5ff06f          	j	10918 <_vfprintf_r+0x22c>
   10b58:	01046413          	ori	s0,s0,16
   10b5c:	dbdff06f          	j	10918 <_vfprintf_r+0x22c>
   10b60:	004c0793          	addi	a5,s8,4
   10b64:	00f12e23          	sw	a5,28(sp)
   10b68:	000c2783          	lw	a5,0(s8)
   10b6c:	0c0103a3          	sb	zero,199(sp)
   10b70:	14f10623          	sb	a5,332(sp)
   10b74:	00012823          	sw	zero,16(sp)
   10b78:	00100b13          	li	s6,1
   10b7c:	00000a93          	li	s5,0
   10b80:	00000c13          	li	s8,0
   10b84:	00000b93          	li	s7,0
   10b88:	00000c93          	li	s9,0
   10b8c:	14c10493          	addi	s1,sp,332
   10b90:	03512823          	sw	s5,48(sp)
   10b94:	016ad463          	ble	s6,s5,10b9c <_vfprintf_r+0x4b0>
   10b98:	03612823          	sw	s6,48(sp)
   10b9c:	0c714703          	lbu	a4,199(sp)
   10ba0:	00070863          	beqz	a4,10bb0 <_vfprintf_r+0x4c4>
   10ba4:	03012783          	lw	a5,48(sp)
   10ba8:	00178793          	addi	a5,a5,1
   10bac:	02f12823          	sw	a5,48(sp)
   10bb0:	00247d93          	andi	s11,s0,2
   10bb4:	000d8863          	beqz	s11,10bc4 <_vfprintf_r+0x4d8>
   10bb8:	03012783          	lw	a5,48(sp)
   10bbc:	00278793          	addi	a5,a5,2
   10bc0:	02f12823          	sw	a5,48(sp)
   10bc4:	08447793          	andi	a5,s0,132
   10bc8:	04f12423          	sw	a5,72(sp)
   10bcc:	06079c63          	bnez	a5,10c44 <_vfprintf_r+0x558>
   10bd0:	02c12783          	lw	a5,44(sp)
   10bd4:	03012703          	lw	a4,48(sp)
   10bd8:	40e78733          	sub	a4,a5,a4
   10bdc:	06e05463          	blez	a4,10c44 <_vfprintf_r+0x558>
   10be0:	0002ae37          	lui	t3,0x2a
   10be4:	01000e93          	li	t4,16
   10be8:	8a4e0e13          	addi	t3,t3,-1884 # 298a4 <blanks.4376>
   10bec:	00700f13          	li	t5,7
   10bf0:	0e812683          	lw	a3,232(sp)
   10bf4:	01cd2023          	sw	t3,0(s10)
   10bf8:	0ec12603          	lw	a2,236(sp)
   10bfc:	00168693          	addi	a3,a3,1 # 2001 <_start-0xe073>
   10c00:	008d0593          	addi	a1,s10,8
   10c04:	00eed463          	ble	a4,t4,10c0c <_vfprintf_r+0x520>
   10c08:	0100106f          	j	11c18 <_vfprintf_r+0x152c>
   10c0c:	00ed2223          	sw	a4,4(s10)
   10c10:	00c70733          	add	a4,a4,a2
   10c14:	0ee12623          	sw	a4,236(sp)
   10c18:	0ed12423          	sw	a3,232(sp)
   10c1c:	00700713          	li	a4,7
   10c20:	00058d13          	mv	s10,a1
   10c24:	02d75063          	ble	a3,a4,10c44 <_vfprintf_r+0x558>
   10c28:	0e410613          	addi	a2,sp,228
   10c2c:	00090593          	mv	a1,s2
   10c30:	00098513          	mv	a0,s3
   10c34:	5940c0ef          	jal	ra,1d1c8 <__sprint_r>
   10c38:	00050463          	beqz	a0,10c40 <_vfprintf_r+0x554>
   10c3c:	2590106f          	j	12694 <_vfprintf_r+0x1fa8>
   10c40:	10c10d13          	addi	s10,sp,268
   10c44:	0c714703          	lbu	a4,199(sp)
   10c48:	04070a63          	beqz	a4,10c9c <_vfprintf_r+0x5b0>
   10c4c:	0c710713          	addi	a4,sp,199
   10c50:	00ed2023          	sw	a4,0(s10)
   10c54:	00100713          	li	a4,1
   10c58:	00ed2223          	sw	a4,4(s10)
   10c5c:	0ec12703          	lw	a4,236(sp)
   10c60:	00700693          	li	a3,7
   10c64:	008d0d13          	addi	s10,s10,8
   10c68:	00170713          	addi	a4,a4,1
   10c6c:	0ee12623          	sw	a4,236(sp)
   10c70:	0e812703          	lw	a4,232(sp)
   10c74:	00170713          	addi	a4,a4,1
   10c78:	0ee12423          	sw	a4,232(sp)
   10c7c:	02e6d063          	ble	a4,a3,10c9c <_vfprintf_r+0x5b0>
   10c80:	0e410613          	addi	a2,sp,228
   10c84:	00090593          	mv	a1,s2
   10c88:	00098513          	mv	a0,s3
   10c8c:	53c0c0ef          	jal	ra,1d1c8 <__sprint_r>
   10c90:	00050463          	beqz	a0,10c98 <_vfprintf_r+0x5ac>
   10c94:	2010106f          	j	12694 <_vfprintf_r+0x1fa8>
   10c98:	10c10d13          	addi	s10,sp,268
   10c9c:	040d8a63          	beqz	s11,10cf0 <_vfprintf_r+0x604>
   10ca0:	0c810713          	addi	a4,sp,200
   10ca4:	00ed2023          	sw	a4,0(s10)
   10ca8:	00200713          	li	a4,2
   10cac:	00ed2223          	sw	a4,4(s10)
   10cb0:	0ec12703          	lw	a4,236(sp)
   10cb4:	00700693          	li	a3,7
   10cb8:	008d0d13          	addi	s10,s10,8
   10cbc:	00270713          	addi	a4,a4,2
   10cc0:	0ee12623          	sw	a4,236(sp)
   10cc4:	0e812703          	lw	a4,232(sp)
   10cc8:	00170713          	addi	a4,a4,1
   10ccc:	0ee12423          	sw	a4,232(sp)
   10cd0:	02e6d063          	ble	a4,a3,10cf0 <_vfprintf_r+0x604>
   10cd4:	0e410613          	addi	a2,sp,228
   10cd8:	00090593          	mv	a1,s2
   10cdc:	00098513          	mv	a0,s3
   10ce0:	4e80c0ef          	jal	ra,1d1c8 <__sprint_r>
   10ce4:	00050463          	beqz	a0,10cec <_vfprintf_r+0x600>
   10ce8:	1ad0106f          	j	12694 <_vfprintf_r+0x1fa8>
   10cec:	10c10d13          	addi	s10,sp,268
   10cf0:	04812783          	lw	a5,72(sp)
   10cf4:	08000713          	li	a4,128
   10cf8:	06e79863          	bne	a5,a4,10d68 <_vfprintf_r+0x67c>
   10cfc:	02c12783          	lw	a5,44(sp)
   10d00:	03012703          	lw	a4,48(sp)
   10d04:	40e78db3          	sub	s11,a5,a4
   10d08:	07b05063          	blez	s11,10d68 <_vfprintf_r+0x67c>
   10d0c:	01000793          	li	a5,16
   10d10:	00700e13          	li	t3,7
   10d14:	0e812703          	lw	a4,232(sp)
   10d18:	0ec12683          	lw	a3,236(sp)
   10d1c:	008d0613          	addi	a2,s10,8
   10d20:	00170713          	addi	a4,a4,1
   10d24:	75b7c6e3          	blt	a5,s11,11c70 <_vfprintf_r+0x1584>
   10d28:	01812783          	lw	a5,24(sp)
   10d2c:	01bd2223          	sw	s11,4(s10)
   10d30:	00dd8db3          	add	s11,s11,a3
   10d34:	00fd2023          	sw	a5,0(s10)
   10d38:	0fb12623          	sw	s11,236(sp)
   10d3c:	0ee12423          	sw	a4,232(sp)
   10d40:	00700693          	li	a3,7
   10d44:	00060d13          	mv	s10,a2
   10d48:	02e6d063          	ble	a4,a3,10d68 <_vfprintf_r+0x67c>
   10d4c:	0e410613          	addi	a2,sp,228
   10d50:	00090593          	mv	a1,s2
   10d54:	00098513          	mv	a0,s3
   10d58:	4700c0ef          	jal	ra,1d1c8 <__sprint_r>
   10d5c:	00050463          	beqz	a0,10d64 <_vfprintf_r+0x678>
   10d60:	1350106f          	j	12694 <_vfprintf_r+0x1fa8>
   10d64:	10c10d13          	addi	s10,sp,268
   10d68:	416a8ab3          	sub	s5,s5,s6
   10d6c:	07505063          	blez	s5,10dcc <_vfprintf_r+0x6e0>
   10d70:	01000d93          	li	s11,16
   10d74:	00700813          	li	a6,7
   10d78:	01812783          	lw	a5,24(sp)
   10d7c:	0e812703          	lw	a4,232(sp)
   10d80:	0ec12683          	lw	a3,236(sp)
   10d84:	00fd2023          	sw	a5,0(s10)
   10d88:	00170713          	addi	a4,a4,1
   10d8c:	008d0613          	addi	a2,s10,8
   10d90:	735dc8e3          	blt	s11,s5,11cc0 <_vfprintf_r+0x15d4>
   10d94:	015d2223          	sw	s5,4(s10)
   10d98:	00da8ab3          	add	s5,s5,a3
   10d9c:	0f512623          	sw	s5,236(sp)
   10da0:	0ee12423          	sw	a4,232(sp)
   10da4:	00700693          	li	a3,7
   10da8:	00060d13          	mv	s10,a2
   10dac:	02e6d063          	ble	a4,a3,10dcc <_vfprintf_r+0x6e0>
   10db0:	0e410613          	addi	a2,sp,228
   10db4:	00090593          	mv	a1,s2
   10db8:	00098513          	mv	a0,s3
   10dbc:	40c0c0ef          	jal	ra,1d1c8 <__sprint_r>
   10dc0:	00050463          	beqz	a0,10dc8 <_vfprintf_r+0x6dc>
   10dc4:	0d10106f          	j	12694 <_vfprintf_r+0x1fa8>
   10dc8:	10c10d13          	addi	s10,sp,268
   10dcc:	10047713          	andi	a4,s0,256
   10dd0:	0ec12d83          	lw	s11,236(sp)
   10dd4:	720716e3          	bnez	a4,11d00 <_vfprintf_r+0x1614>
   10dd8:	0e812783          	lw	a5,232(sp)
   10ddc:	01bb0333          	add	t1,s6,s11
   10de0:	009d2023          	sw	s1,0(s10)
   10de4:	00178793          	addi	a5,a5,1
   10de8:	016d2223          	sw	s6,4(s10)
   10dec:	0e612623          	sw	t1,236(sp)
   10df0:	0ef12423          	sw	a5,232(sp)
   10df4:	00700713          	li	a4,7
   10df8:	008d0d13          	addi	s10,s10,8
   10dfc:	00f74463          	blt	a4,a5,10e04 <_vfprintf_r+0x718>
   10e00:	1c80106f          	j	11fc8 <_vfprintf_r+0x18dc>
   10e04:	0e410613          	addi	a2,sp,228
   10e08:	00090593          	mv	a1,s2
   10e0c:	00098513          	mv	a0,s3
   10e10:	3b80c0ef          	jal	ra,1d1c8 <__sprint_r>
   10e14:	00050463          	beqz	a0,10e1c <_vfprintf_r+0x730>
   10e18:	07d0106f          	j	12694 <_vfprintf_r+0x1fa8>
   10e1c:	10c10d13          	addi	s10,sp,268
   10e20:	1a80106f          	j	11fc8 <_vfprintf_r+0x18dc>
   10e24:	01046413          	ori	s0,s0,16
   10e28:	02047793          	andi	a5,s0,32
   10e2c:	04078e63          	beqz	a5,10e88 <_vfprintf_r+0x79c>
   10e30:	007c0c13          	addi	s8,s8,7
   10e34:	ff8c7c13          	andi	s8,s8,-8
   10e38:	008c0793          	addi	a5,s8,8
   10e3c:	000c2c83          	lw	s9,0(s8)
   10e40:	004c2c03          	lw	s8,4(s8)
   10e44:	00f12e23          	sw	a5,28(sp)
   10e48:	000c5e63          	bgez	s8,10e64 <_vfprintf_r+0x778>
   10e4c:	41900cb3          	neg	s9,s9
   10e50:	019037b3          	snez	a5,s9
   10e54:	41800c33          	neg	s8,s8
   10e58:	40fc0c33          	sub	s8,s8,a5
   10e5c:	02d00793          	li	a5,45
   10e60:	0cf103a3          	sb	a5,199(sp)
   10e64:	fff00793          	li	a5,-1
   10e68:	40fb12e3          	bne	s6,a5,11a6c <_vfprintf_r+0x1380>
   10e6c:	480c14e3          	bnez	s8,11af4 <_vfprintf_r+0x1408>
   10e70:	00900793          	li	a5,9
   10e74:	4997e0e3          	bltu	a5,s9,11af4 <_vfprintf_r+0x1408>
   10e78:	030c8c93          	addi	s9,s9,48
   10e7c:	1b9107a3          	sb	s9,431(sp)
   10e80:	1af10493          	addi	s1,sp,431
   10e84:	4490006f          	j	11acc <_vfprintf_r+0x13e0>
   10e88:	004c0793          	addi	a5,s8,4
   10e8c:	00f12e23          	sw	a5,28(sp)
   10e90:	01047793          	andi	a5,s0,16
   10e94:	00078863          	beqz	a5,10ea4 <_vfprintf_r+0x7b8>
   10e98:	000c2c83          	lw	s9,0(s8)
   10e9c:	41fcdc13          	srai	s8,s9,0x1f
   10ea0:	fa9ff06f          	j	10e48 <_vfprintf_r+0x75c>
   10ea4:	04047793          	andi	a5,s0,64
   10ea8:	000c2c83          	lw	s9,0(s8)
   10eac:	00078863          	beqz	a5,10ebc <_vfprintf_r+0x7d0>
   10eb0:	010c9c93          	slli	s9,s9,0x10
   10eb4:	410cdc93          	srai	s9,s9,0x10
   10eb8:	fe5ff06f          	j	10e9c <_vfprintf_r+0x7b0>
   10ebc:	20047793          	andi	a5,s0,512
   10ec0:	fc078ee3          	beqz	a5,10e9c <_vfprintf_r+0x7b0>
   10ec4:	018c9c93          	slli	s9,s9,0x18
   10ec8:	418cdc93          	srai	s9,s9,0x18
   10ecc:	fd1ff06f          	j	10e9c <_vfprintf_r+0x7b0>
   10ed0:	00847793          	andi	a5,s0,8
   10ed4:	0a078a63          	beqz	a5,10f88 <_vfprintf_r+0x89c>
   10ed8:	004c0793          	addi	a5,s8,4
   10edc:	00f12e23          	sw	a5,28(sp)
   10ee0:	000c2783          	lw	a5,0(s8)
   10ee4:	0007a603          	lw	a2,0(a5)
   10ee8:	0047a683          	lw	a3,4(a5)
   10eec:	0087a703          	lw	a4,8(a5)
   10ef0:	00c7a783          	lw	a5,12(a5)
   10ef4:	0ec12823          	sw	a2,240(sp)
   10ef8:	0ed12a23          	sw	a3,244(sp)
   10efc:	0ee12c23          	sw	a4,248(sp)
   10f00:	0f010513          	addi	a0,sp,240
   10f04:	0ef12e23          	sw	a5,252(sp)
   10f08:	375050ef          	jal	ra,16a7c <_ldcheck>
   10f0c:	0ca12623          	sw	a0,204(sp)
   10f10:	00200793          	li	a5,2
   10f14:	0cf51063          	bne	a0,a5,10fd4 <_vfprintf_r+0x8e8>
   10f18:	0f012783          	lw	a5,240(sp)
   10f1c:	0a010593          	addi	a1,sp,160
   10f20:	0b010513          	addi	a0,sp,176
   10f24:	0af12823          	sw	a5,176(sp)
   10f28:	0f412783          	lw	a5,244(sp)
   10f2c:	0a012023          	sw	zero,160(sp)
   10f30:	0a012223          	sw	zero,164(sp)
   10f34:	0af12a23          	sw	a5,180(sp)
   10f38:	0f812783          	lw	a5,248(sp)
   10f3c:	0a012423          	sw	zero,168(sp)
   10f40:	0a012623          	sw	zero,172(sp)
   10f44:	0af12c23          	sw	a5,184(sp)
   10f48:	0fc12783          	lw	a5,252(sp)
   10f4c:	0af12e23          	sw	a5,188(sp)
   10f50:	008150ef          	jal	ra,25f58 <__letf2>
   10f54:	00055663          	bgez	a0,10f60 <_vfprintf_r+0x874>
   10f58:	02d00793          	li	a5,45
   10f5c:	0cf103a3          	sb	a5,199(sp)
   10f60:	00c12703          	lw	a4,12(sp)
   10f64:	04700793          	li	a5,71
   10f68:	06e7c063          	blt	a5,a4,10fc8 <_vfprintf_r+0x8dc>
   10f6c:	0002a4b7          	lui	s1,0x2a
   10f70:	90048493          	addi	s1,s1,-1792 # 29900 <zeroes.4377+0x4c>
   10f74:	f7f47413          	andi	s0,s0,-129
   10f78:	00012823          	sw	zero,16(sp)
   10f7c:	00300b13          	li	s6,3
   10f80:	00000a93          	li	s5,0
   10f84:	3590006f          	j	11adc <_vfprintf_r+0x13f0>
   10f88:	007c0c13          	addi	s8,s8,7
   10f8c:	ff8c7c13          	andi	s8,s8,-8
   10f90:	000c2583          	lw	a1,0(s8)
   10f94:	004c2603          	lw	a2,4(s8)
   10f98:	008c0793          	addi	a5,s8,8
   10f9c:	0b010513          	addi	a0,sp,176
   10fa0:	00f12e23          	sw	a5,28(sp)
   10fa4:	629170ef          	jal	ra,28dcc <__extenddftf2>
   10fa8:	0b012783          	lw	a5,176(sp)
   10fac:	0ef12823          	sw	a5,240(sp)
   10fb0:	0b412783          	lw	a5,180(sp)
   10fb4:	0ef12a23          	sw	a5,244(sp)
   10fb8:	0b812783          	lw	a5,184(sp)
   10fbc:	0ef12c23          	sw	a5,248(sp)
   10fc0:	0bc12783          	lw	a5,188(sp)
   10fc4:	f3dff06f          	j	10f00 <_vfprintf_r+0x814>
   10fc8:	0002a4b7          	lui	s1,0x2a
   10fcc:	90448493          	addi	s1,s1,-1788 # 29904 <zeroes.4377+0x50>
   10fd0:	fa5ff06f          	j	10f74 <_vfprintf_r+0x888>
   10fd4:	00100793          	li	a5,1
   10fd8:	02f51c63          	bne	a0,a5,11010 <_vfprintf_r+0x924>
   10fdc:	0fc12783          	lw	a5,252(sp)
   10fe0:	0007d663          	bgez	a5,10fec <_vfprintf_r+0x900>
   10fe4:	02d00793          	li	a5,45
   10fe8:	0cf103a3          	sb	a5,199(sp)
   10fec:	00c12703          	lw	a4,12(sp)
   10ff0:	04700793          	li	a5,71
   10ff4:	00e7c863          	blt	a5,a4,11004 <_vfprintf_r+0x918>
   10ff8:	0002a4b7          	lui	s1,0x2a
   10ffc:	90848493          	addi	s1,s1,-1784 # 29908 <zeroes.4377+0x54>
   11000:	f75ff06f          	j	10f74 <_vfprintf_r+0x888>
   11004:	0002a4b7          	lui	s1,0x2a
   11008:	90c48493          	addi	s1,s1,-1780 # 2990c <zeroes.4377+0x58>
   1100c:	f69ff06f          	j	10f74 <_vfprintf_r+0x888>
   11010:	00c12783          	lw	a5,12(sp)
   11014:	fdf7fb93          	andi	s7,a5,-33
   11018:	04100793          	li	a5,65
   1101c:	06fb9063          	bne	s7,a5,1107c <_vfprintf_r+0x990>
   11020:	00c12683          	lw	a3,12(sp)
   11024:	03000793          	li	a5,48
   11028:	0cf10423          	sb	a5,200(sp)
   1102c:	06100713          	li	a4,97
   11030:	05800793          	li	a5,88
   11034:	00e69463          	bne	a3,a4,1103c <_vfprintf_r+0x950>
   11038:	07800793          	li	a5,120
   1103c:	0cf104a3          	sb	a5,201(sp)
   11040:	06300793          	li	a5,99
   11044:	00246413          	ori	s0,s0,2
   11048:	5167d663          	ble	s6,a5,11554 <_vfprintf_r+0xe68>
   1104c:	001b0593          	addi	a1,s6,1
   11050:	00098513          	mv	a0,s3
   11054:	529050ef          	jal	ra,16d7c <_malloc_r>
   11058:	00050493          	mv	s1,a0
   1105c:	50051263          	bnez	a0,11560 <_vfprintf_r+0xe74>
   11060:	00c95783          	lhu	a5,12(s2)
   11064:	0407e793          	ori	a5,a5,64
   11068:	00f91623          	sh	a5,12(s2)
   1106c:	00c95783          	lhu	a5,12(s2)
   11070:	0407f793          	andi	a5,a5,64
   11074:	f6078663          	beqz	a5,107e0 <_vfprintf_r+0xf4>
   11078:	fb8ff06f          	j	10830 <_vfprintf_r+0x144>
   1107c:	fff00793          	li	a5,-1
   11080:	4efb0463          	beq	s6,a5,11568 <_vfprintf_r+0xe7c>
   11084:	04700793          	li	a5,71
   11088:	00012823          	sw	zero,16(sp)
   1108c:	00fb9463          	bne	s7,a5,11094 <_vfprintf_r+0x9a8>
   11090:	4e0b0263          	beqz	s6,11574 <_vfprintf_r+0xe88>
   11094:	0fc12a03          	lw	s4,252(sp)
   11098:	10046793          	ori	a5,s0,256
   1109c:	02f12823          	sw	a5,48(sp)
   110a0:	04012423          	sw	zero,72(sp)
   110a4:	0f012e03          	lw	t3,240(sp)
   110a8:	0f412d83          	lw	s11,244(sp)
   110ac:	0f812c83          	lw	s9,248(sp)
   110b0:	000a5a63          	bgez	s4,110c4 <_vfprintf_r+0x9d8>
   110b4:	800007b7          	lui	a5,0x80000
   110b8:	0147ca33          	xor	s4,a5,s4
   110bc:	02d00793          	li	a5,45
   110c0:	04f12423          	sw	a5,72(sp)
   110c4:	04100793          	li	a5,65
   110c8:	50fb9063          	bne	s7,a5,115c8 <_vfprintf_r+0xedc>
   110cc:	0b010513          	addi	a0,sp,176
   110d0:	0bc12823          	sw	t3,176(sp)
   110d4:	0bb12a23          	sw	s11,180(sp)
   110d8:	0b912c23          	sw	s9,184(sp)
   110dc:	0b412e23          	sw	s4,188(sp)
   110e0:	0dc180ef          	jal	ra,291bc <__trunctfdf2>
   110e4:	0cc10613          	addi	a2,sp,204
   110e8:	764070ef          	jal	ra,1884c <frexp>
   110ec:	00058613          	mv	a2,a1
   110f0:	00050593          	mv	a1,a0
   110f4:	0b010513          	addi	a0,sp,176
   110f8:	4d5170ef          	jal	ra,28dcc <__extenddftf2>
   110fc:	0b012583          	lw	a1,176(sp)
   11100:	0002a7b7          	lui	a5,0x2a
   11104:	8d078793          	addi	a5,a5,-1840 # 298d0 <zeroes.4377+0x1c>
   11108:	08b12823          	sw	a1,144(sp)
   1110c:	0b412583          	lw	a1,180(sp)
   11110:	0007a603          	lw	a2,0(a5)
   11114:	0047a683          	lw	a3,4(a5)
   11118:	08b12a23          	sw	a1,148(sp)
   1111c:	0b812583          	lw	a1,184(sp)
   11120:	0087a703          	lw	a4,8(a5)
   11124:	00c7a783          	lw	a5,12(a5)
   11128:	08b12c23          	sw	a1,152(sp)
   1112c:	0bc12583          	lw	a1,188(sp)
   11130:	08c12023          	sw	a2,128(sp)
   11134:	0a010513          	addi	a0,sp,160
   11138:	08b12e23          	sw	a1,156(sp)
   1113c:	08010613          	addi	a2,sp,128
   11140:	09010593          	addi	a1,sp,144
   11144:	08d12223          	sw	a3,132(sp)
   11148:	08e12423          	sw	a4,136(sp)
   1114c:	08f12623          	sw	a5,140(sp)
   11150:	76d140ef          	jal	ra,260bc <__multf3>
   11154:	0a012383          	lw	t2,160(sp)
   11158:	0a412803          	lw	a6,164(sp)
   1115c:	0a812d83          	lw	s11,168(sp)
   11160:	0ac12c83          	lw	s9,172(sp)
   11164:	0a010593          	addi	a1,sp,160
   11168:	0b010513          	addi	a0,sp,176
   1116c:	0a712823          	sw	t2,176(sp)
   11170:	04712823          	sw	t2,80(sp)
   11174:	0b012a23          	sw	a6,180(sp)
   11178:	05012623          	sw	a6,76(sp)
   1117c:	0bb12c23          	sw	s11,184(sp)
   11180:	0b912e23          	sw	s9,188(sp)
   11184:	0a012023          	sw	zero,160(sp)
   11188:	0a012223          	sw	zero,164(sp)
   1118c:	0a012423          	sw	zero,168(sp)
   11190:	0a012623          	sw	zero,172(sp)
   11194:	391140ef          	jal	ra,25d24 <__eqtf2>
   11198:	04c12803          	lw	a6,76(sp)
   1119c:	05012383          	lw	t2,80(sp)
   111a0:	00051663          	bnez	a0,111ac <_vfprintf_r+0xac0>
   111a4:	00100793          	li	a5,1
   111a8:	0cf12623          	sw	a5,204(sp)
   111ac:	00c12703          	lw	a4,12(sp)
   111b0:	06100793          	li	a5,97
   111b4:	3cf71663          	bne	a4,a5,11580 <_vfprintf_r+0xe94>
   111b8:	0002aab7          	lui	s5,0x2a
   111bc:	910a8a93          	addi	s5,s5,-1776 # 29910 <zeroes.4377+0x5c>
   111c0:	0002a737          	lui	a4,0x2a
   111c4:	8e070713          	addi	a4,a4,-1824 # 298e0 <zeroes.4377+0x2c>
   111c8:	00072783          	lw	a5,0(a4)
   111cc:	fffb0e13          	addi	t3,s6,-1
   111d0:	00048c13          	mv	s8,s1
   111d4:	04f12823          	sw	a5,80(sp)
   111d8:	00472783          	lw	a5,4(a4)
   111dc:	04f12a23          	sw	a5,84(sp)
   111e0:	00872783          	lw	a5,8(a4)
   111e4:	04f12c23          	sw	a5,88(sp)
   111e8:	00c72783          	lw	a5,12(a4)
   111ec:	04f12e23          	sw	a5,92(sp)
   111f0:	05012783          	lw	a5,80(sp)
   111f4:	0a010593          	addi	a1,sp,160
   111f8:	09010613          	addi	a2,sp,144
   111fc:	08f12823          	sw	a5,144(sp)
   11200:	05412783          	lw	a5,84(sp)
   11204:	0b010513          	addi	a0,sp,176
   11208:	07c12423          	sw	t3,104(sp)
   1120c:	08f12a23          	sw	a5,148(sp)
   11210:	05812783          	lw	a5,88(sp)
   11214:	0a712023          	sw	t2,160(sp)
   11218:	0b012223          	sw	a6,164(sp)
   1121c:	08f12c23          	sw	a5,152(sp)
   11220:	05c12783          	lw	a5,92(sp)
   11224:	0bb12423          	sw	s11,168(sp)
   11228:	0b912623          	sw	s9,172(sp)
   1122c:	08f12e23          	sw	a5,156(sp)
   11230:	68d140ef          	jal	ra,260bc <__multf3>
   11234:	0b012603          	lw	a2,176(sp)
   11238:	0b412683          	lw	a3,180(sp)
   1123c:	0b010513          	addi	a0,sp,176
   11240:	06c12223          	sw	a2,100(sp)
   11244:	04d12623          	sw	a3,76(sp)
   11248:	780170ef          	jal	ra,289c8 <__fixtfsi>
   1124c:	00050593          	mv	a1,a0
   11250:	00050a13          	mv	s4,a0
   11254:	0b010513          	addi	a0,sp,176
   11258:	0b812d83          	lw	s11,184(sp)
   1125c:	0bc12c83          	lw	s9,188(sp)
   11260:	0d1170ef          	jal	ra,28b30 <__floatsitf>
   11264:	0b012703          	lw	a4,176(sp)
   11268:	06412603          	lw	a2,100(sp)
   1126c:	04c12683          	lw	a3,76(sp)
   11270:	08e12023          	sw	a4,128(sp)
   11274:	0b412703          	lw	a4,180(sp)
   11278:	08c12823          	sw	a2,144(sp)
   1127c:	09010593          	addi	a1,sp,144
   11280:	08e12223          	sw	a4,132(sp)
   11284:	0b812703          	lw	a4,184(sp)
   11288:	08010613          	addi	a2,sp,128
   1128c:	0a010513          	addi	a0,sp,160
   11290:	08e12423          	sw	a4,136(sp)
   11294:	0bc12703          	lw	a4,188(sp)
   11298:	09b12c23          	sw	s11,152(sp)
   1129c:	09912e23          	sw	s9,156(sp)
   112a0:	08e12623          	sw	a4,140(sp)
   112a4:	08d12a23          	sw	a3,148(sp)
   112a8:	218160ef          	jal	ra,274c0 <__subtf3>
   112ac:	014a8733          	add	a4,s5,s4
   112b0:	00074703          	lbu	a4,0(a4)
   112b4:	06812e03          	lw	t3,104(sp)
   112b8:	0a812f03          	lw	t5,168(sp)
   112bc:	0ac12e83          	lw	t4,172(sp)
   112c0:	001c0c13          	addi	s8,s8,1
   112c4:	0a012283          	lw	t0,160(sp)
   112c8:	0a412f83          	lw	t6,164(sp)
   112cc:	05c12623          	sw	t3,76(sp)
   112d0:	feec0fa3          	sb	a4,-1(s8)
   112d4:	fff00713          	li	a4,-1
   112d8:	000f0d93          	mv	s11,t5
   112dc:	000e8c93          	mv	s9,t4
   112e0:	06ee0863          	beq	t3,a4,11350 <_vfprintf_r+0xc64>
   112e4:	fffe0e13          	addi	t3,t3,-1
   112e8:	0a010593          	addi	a1,sp,160
   112ec:	0b010513          	addi	a0,sp,176
   112f0:	07d12e23          	sw	t4,124(sp)
   112f4:	07e12c23          	sw	t5,120(sp)
   112f8:	07f12a23          	sw	t6,116(sp)
   112fc:	06512823          	sw	t0,112(sp)
   11300:	07c12623          	sw	t3,108(sp)
   11304:	0a512823          	sw	t0,176(sp)
   11308:	06512423          	sw	t0,104(sp)
   1130c:	0bf12a23          	sw	t6,180(sp)
   11310:	07f12223          	sw	t6,100(sp)
   11314:	0be12c23          	sw	t5,184(sp)
   11318:	0bd12e23          	sw	t4,188(sp)
   1131c:	0a012023          	sw	zero,160(sp)
   11320:	0a012223          	sw	zero,164(sp)
   11324:	0a012423          	sw	zero,168(sp)
   11328:	0a012623          	sw	zero,172(sp)
   1132c:	1f9140ef          	jal	ra,25d24 <__eqtf2>
   11330:	06412803          	lw	a6,100(sp)
   11334:	06812383          	lw	t2,104(sp)
   11338:	06c12e03          	lw	t3,108(sp)
   1133c:	07012283          	lw	t0,112(sp)
   11340:	07412f83          	lw	t6,116(sp)
   11344:	07812f03          	lw	t5,120(sp)
   11348:	07c12e83          	lw	t4,124(sp)
   1134c:	ea0512e3          	bnez	a0,111f0 <_vfprintf_r+0xb04>
   11350:	0002a737          	lui	a4,0x2a
   11354:	8f070713          	addi	a4,a4,-1808 # 298f0 <zeroes.4377+0x3c>
   11358:	00072603          	lw	a2,0(a4)
   1135c:	00472683          	lw	a3,4(a4)
   11360:	00872d83          	lw	s11,8(a4)
   11364:	00c72c83          	lw	s9,12(a4)
   11368:	0a010593          	addi	a1,sp,160
   1136c:	0b010513          	addi	a0,sp,176
   11370:	0a512823          	sw	t0,176(sp)
   11374:	06512423          	sw	t0,104(sp)
   11378:	0bf12a23          	sw	t6,180(sp)
   1137c:	07f12223          	sw	t6,100(sp)
   11380:	0be12c23          	sw	t5,184(sp)
   11384:	05e12e23          	sw	t5,92(sp)
   11388:	0bd12e23          	sw	t4,188(sp)
   1138c:	05d12c23          	sw	t4,88(sp)
   11390:	0ac12023          	sw	a2,160(sp)
   11394:	04c12a23          	sw	a2,84(sp)
   11398:	0ad12223          	sw	a3,164(sp)
   1139c:	04d12823          	sw	a3,80(sp)
   113a0:	0bb12423          	sw	s11,168(sp)
   113a4:	0b912623          	sw	s9,172(sp)
   113a8:	24d140ef          	jal	ra,25df4 <__getf2>
   113ac:	04a04a63          	bgtz	a0,11400 <_vfprintf_r+0xd14>
   113b0:	06812283          	lw	t0,104(sp)
   113b4:	06412f83          	lw	t6,100(sp)
   113b8:	05c12f03          	lw	t5,92(sp)
   113bc:	05812e83          	lw	t4,88(sp)
   113c0:	05412603          	lw	a2,84(sp)
   113c4:	05012683          	lw	a3,80(sp)
   113c8:	0a010593          	addi	a1,sp,160
   113cc:	0b010513          	addi	a0,sp,176
   113d0:	0a512823          	sw	t0,176(sp)
   113d4:	0bf12a23          	sw	t6,180(sp)
   113d8:	0be12c23          	sw	t5,184(sp)
   113dc:	0bd12e23          	sw	t4,188(sp)
   113e0:	0ac12023          	sw	a2,160(sp)
   113e4:	0ad12223          	sw	a3,164(sp)
   113e8:	0bb12423          	sw	s11,168(sp)
   113ec:	0b912623          	sw	s9,172(sp)
   113f0:	135140ef          	jal	ra,25d24 <__eqtf2>
   113f4:	1c051063          	bnez	a0,115b4 <_vfprintf_r+0xec8>
   113f8:	001a7a13          	andi	s4,s4,1
   113fc:	1a0a0c63          	beqz	s4,115b4 <_vfprintf_r+0xec8>
   11400:	00fac603          	lbu	a2,15(s5)
   11404:	0d812e23          	sw	s8,220(sp)
   11408:	03000593          	li	a1,48
   1140c:	0dc12683          	lw	a3,220(sp)
   11410:	fff68713          	addi	a4,a3,-1
   11414:	0ce12e23          	sw	a4,220(sp)
   11418:	fff6c703          	lbu	a4,-1(a3)
   1141c:	16c70863          	beq	a4,a2,1158c <_vfprintf_r+0xea0>
   11420:	03900613          	li	a2,57
   11424:	16c71863          	bne	a4,a2,11594 <_vfprintf_r+0xea8>
   11428:	00aac703          	lbu	a4,10(s5)
   1142c:	fee68fa3          	sb	a4,-1(a3)
   11430:	000c0a13          	mv	s4,s8
   11434:	04700713          	li	a4,71
   11438:	409a0a33          	sub	s4,s4,s1
   1143c:	0cc12c83          	lw	s9,204(sp)
   11440:	2aeb9a63          	bne	s7,a4,116f4 <_vfprintf_r+0x1008>
   11444:	ffd00713          	li	a4,-3
   11448:	00ecc463          	blt	s9,a4,11450 <_vfprintf_r+0xd64>
   1144c:	339b5863          	ble	s9,s6,1177c <_vfprintf_r+0x1090>
   11450:	00c12783          	lw	a5,12(sp)
   11454:	ffe78793          	addi	a5,a5,-2
   11458:	00f12623          	sw	a5,12(sp)
   1145c:	00c12783          	lw	a5,12(sp)
   11460:	fffc8a93          	addi	s5,s9,-1
   11464:	0d512623          	sw	s5,204(sp)
   11468:	fdf7f693          	andi	a3,a5,-33
   1146c:	04100593          	li	a1,65
   11470:	00c14703          	lbu	a4,12(sp)
   11474:	00000613          	li	a2,0
   11478:	00b69863          	bne	a3,a1,11488 <_vfprintf_r+0xd9c>
   1147c:	00f70713          	addi	a4,a4,15
   11480:	0ff77713          	andi	a4,a4,255
   11484:	00100613          	li	a2,1
   11488:	0ce10a23          	sb	a4,212(sp)
   1148c:	02b00793          	li	a5,43
   11490:	000ad863          	bgez	s5,114a0 <_vfprintf_r+0xdb4>
   11494:	00100a93          	li	s5,1
   11498:	419a8ab3          	sub	s5,s5,s9
   1149c:	02d00793          	li	a5,45
   114a0:	0cf10aa3          	sb	a5,213(sp)
   114a4:	00900793          	li	a5,9
   114a8:	2957dc63          	ble	s5,a5,11740 <_vfprintf_r+0x1054>
   114ac:	0e310b93          	addi	s7,sp,227
   114b0:	000b8c93          	mv	s9,s7
   114b4:	00900d93          	li	s11,9
   114b8:	00a00593          	li	a1,10
   114bc:	000a8513          	mv	a0,s5
   114c0:	1e0180ef          	jal	ra,296a0 <__modsi3>
   114c4:	03050513          	addi	a0,a0,48
   114c8:	feab8fa3          	sb	a0,-1(s7)
   114cc:	00a00593          	li	a1,10
   114d0:	000a8513          	mv	a0,s5
   114d4:	148180ef          	jal	ra,2961c <__divsi3>
   114d8:	fffb8c13          	addi	s8,s7,-1
   114dc:	00050a93          	mv	s5,a0
   114e0:	24adc263          	blt	s11,a0,11724 <_vfprintf_r+0x1038>
   114e4:	03050a93          	addi	s5,a0,48
   114e8:	ffeb8b93          	addi	s7,s7,-2
   114ec:	ff5c0fa3          	sb	s5,-1(s8)
   114f0:	0d610793          	addi	a5,sp,214
   114f4:	239bec63          	bltu	s7,s9,1172c <_vfprintf_r+0x1040>
   114f8:	0d410713          	addi	a4,sp,212
   114fc:	40e787b3          	sub	a5,a5,a4
   11500:	04f12023          	sw	a5,64(sp)
   11504:	01478b33          	add	s6,a5,s4
   11508:	00100793          	li	a5,1
   1150c:	0147c663          	blt	a5,s4,11518 <_vfprintf_r+0xe2c>
   11510:	00147793          	andi	a5,s0,1
   11514:	00078663          	beqz	a5,11520 <_vfprintf_r+0xe34>
   11518:	02412783          	lw	a5,36(sp)
   1151c:	00fb0b33          	add	s6,s6,a5
   11520:	bff47413          	andi	s0,s0,-1025
   11524:	10046793          	ori	a5,s0,256
   11528:	02f12823          	sw	a5,48(sp)
   1152c:	00000c13          	li	s8,0
   11530:	00000b93          	li	s7,0
   11534:	00000c93          	li	s9,0
   11538:	04812783          	lw	a5,72(sp)
   1153c:	00078663          	beqz	a5,11548 <_vfprintf_r+0xe5c>
   11540:	02d00713          	li	a4,45
   11544:	0ce103a3          	sb	a4,199(sp)
   11548:	03012403          	lw	s0,48(sp)
   1154c:	00000a93          	li	s5,0
   11550:	e40ff06f          	j	10b90 <_vfprintf_r+0x4a4>
   11554:	00012823          	sw	zero,16(sp)
   11558:	14c10493          	addi	s1,sp,332
   1155c:	b39ff06f          	j	11094 <_vfprintf_r+0x9a8>
   11560:	00a12823          	sw	a0,16(sp)
   11564:	b31ff06f          	j	11094 <_vfprintf_r+0x9a8>
   11568:	00012823          	sw	zero,16(sp)
   1156c:	00600b13          	li	s6,6
   11570:	b25ff06f          	j	11094 <_vfprintf_r+0x9a8>
   11574:	01612823          	sw	s6,16(sp)
   11578:	00100b13          	li	s6,1
   1157c:	b19ff06f          	j	11094 <_vfprintf_r+0x9a8>
   11580:	0002aab7          	lui	s5,0x2a
   11584:	924a8a93          	addi	s5,s5,-1756 # 29924 <zeroes.4377+0x70>
   11588:	c39ff06f          	j	111c0 <_vfprintf_r+0xad4>
   1158c:	feb68fa3          	sb	a1,-1(a3)
   11590:	e7dff06f          	j	1140c <_vfprintf_r+0xd20>
   11594:	00170713          	addi	a4,a4,1
   11598:	0ff77713          	andi	a4,a4,255
   1159c:	e91ff06f          	j	1142c <_vfprintf_r+0xd40>
   115a0:	001a0a13          	addi	s4,s4,1
   115a4:	feea0fa3          	sb	a4,-1(s4)
   115a8:	414c07b3          	sub	a5,s8,s4
   115ac:	fe07dae3          	bgez	a5,115a0 <_vfprintf_r+0xeb4>
   115b0:	e85ff06f          	j	11434 <_vfprintf_r+0xd48>
   115b4:	04c12783          	lw	a5,76(sp)
   115b8:	000c0a13          	mv	s4,s8
   115bc:	03000713          	li	a4,48
   115c0:	00fc0c33          	add	s8,s8,a5
   115c4:	fe5ff06f          	j	115a8 <_vfprintf_r+0xebc>
   115c8:	04600793          	li	a5,70
   115cc:	00fb8e63          	beq	s7,a5,115e8 <_vfprintf_r+0xefc>
   115d0:	04500793          	li	a5,69
   115d4:	001b0a93          	addi	s5,s6,1
   115d8:	00fb8463          	beq	s7,a5,115e0 <_vfprintf_r+0xef4>
   115dc:	000b0a93          	mv	s5,s6
   115e0:	00200613          	li	a2,2
   115e4:	00c0006f          	j	115f0 <_vfprintf_r+0xf04>
   115e8:	000b0a93          	mv	s5,s6
   115ec:	00300613          	li	a2,3
   115f0:	0d010793          	addi	a5,sp,208
   115f4:	0dc10813          	addi	a6,sp,220
   115f8:	0cc10713          	addi	a4,sp,204
   115fc:	000a8693          	mv	a3,s5
   11600:	0b010593          	addi	a1,sp,176
   11604:	00098513          	mv	a0,s3
   11608:	0bc12823          	sw	t3,176(sp)
   1160c:	05c12623          	sw	t3,76(sp)
   11610:	0bb12a23          	sw	s11,180(sp)
   11614:	0b912c23          	sw	s9,184(sp)
   11618:	0b412e23          	sw	s4,188(sp)
   1161c:	00d040ef          	jal	ra,15e28 <_ldtoa_r>
   11620:	04700793          	li	a5,71
   11624:	00050493          	mv	s1,a0
   11628:	04c12e03          	lw	t3,76(sp)
   1162c:	00fb9663          	bne	s7,a5,11638 <_vfprintf_r+0xf4c>
   11630:	00147793          	andi	a5,s0,1
   11634:	0a078063          	beqz	a5,116d4 <_vfprintf_r+0xfe8>
   11638:	04600793          	li	a5,70
   1163c:	01548c33          	add	s8,s1,s5
   11640:	04fb9e63          	bne	s7,a5,1169c <_vfprintf_r+0xfb0>
   11644:	0004c703          	lbu	a4,0(s1)
   11648:	03000793          	li	a5,48
   1164c:	04f71463          	bne	a4,a5,11694 <_vfprintf_r+0xfa8>
   11650:	0a010593          	addi	a1,sp,160
   11654:	0b010513          	addi	a0,sp,176
   11658:	0bc12823          	sw	t3,176(sp)
   1165c:	05c12623          	sw	t3,76(sp)
   11660:	0bb12a23          	sw	s11,180(sp)
   11664:	0b912c23          	sw	s9,184(sp)
   11668:	0b412e23          	sw	s4,188(sp)
   1166c:	0a012023          	sw	zero,160(sp)
   11670:	0a012223          	sw	zero,164(sp)
   11674:	0a012423          	sw	zero,168(sp)
   11678:	0a012623          	sw	zero,172(sp)
   1167c:	6a8140ef          	jal	ra,25d24 <__eqtf2>
   11680:	04c12e03          	lw	t3,76(sp)
   11684:	00050863          	beqz	a0,11694 <_vfprintf_r+0xfa8>
   11688:	00100793          	li	a5,1
   1168c:	41578ab3          	sub	s5,a5,s5
   11690:	0d512623          	sw	s5,204(sp)
   11694:	0cc12783          	lw	a5,204(sp)
   11698:	00fc0c33          	add	s8,s8,a5
   1169c:	0a010593          	addi	a1,sp,160
   116a0:	0b010513          	addi	a0,sp,176
   116a4:	0bc12823          	sw	t3,176(sp)
   116a8:	0bb12a23          	sw	s11,180(sp)
   116ac:	0b912c23          	sw	s9,184(sp)
   116b0:	0b412e23          	sw	s4,188(sp)
   116b4:	0a012023          	sw	zero,160(sp)
   116b8:	0a012223          	sw	zero,164(sp)
   116bc:	0a012423          	sw	zero,168(sp)
   116c0:	0a012623          	sw	zero,172(sp)
   116c4:	660140ef          	jal	ra,25d24 <__eqtf2>
   116c8:	03000713          	li	a4,48
   116cc:	00051e63          	bnez	a0,116e8 <_vfprintf_r+0xffc>
   116d0:	0d812e23          	sw	s8,220(sp)
   116d4:	0dc12a03          	lw	s4,220(sp)
   116d8:	d5dff06f          	j	11434 <_vfprintf_r+0xd48>
   116dc:	00178693          	addi	a3,a5,1
   116e0:	0cd12e23          	sw	a3,220(sp)
   116e4:	00e78023          	sb	a4,0(a5)
   116e8:	0dc12783          	lw	a5,220(sp)
   116ec:	ff87e8e3          	bltu	a5,s8,116dc <_vfprintf_r+0xff0>
   116f0:	fe5ff06f          	j	116d4 <_vfprintf_r+0xfe8>
   116f4:	04600713          	li	a4,70
   116f8:	d6eb92e3          	bne	s7,a4,1145c <_vfprintf_r+0xd70>
   116fc:	07905463          	blez	s9,11764 <_vfprintf_r+0x1078>
   11700:	000b1663          	bnez	s6,1170c <_vfprintf_r+0x1020>
   11704:	00147713          	andi	a4,s0,1
   11708:	0c070663          	beqz	a4,117d4 <_vfprintf_r+0x10e8>
   1170c:	02412783          	lw	a5,36(sp)
   11710:	00fc8733          	add	a4,s9,a5
   11714:	00eb0b33          	add	s6,s6,a4
   11718:	06600793          	li	a5,102
   1171c:	00f12623          	sw	a5,12(sp)
   11720:	0980006f          	j	117b8 <_vfprintf_r+0x10cc>
   11724:	000c0b93          	mv	s7,s8
   11728:	d91ff06f          	j	114b8 <_vfprintf_r+0xdcc>
   1172c:	001b8b93          	addi	s7,s7,1
   11730:	fffbc703          	lbu	a4,-1(s7)
   11734:	00178793          	addi	a5,a5,1
   11738:	fee78fa3          	sb	a4,-1(a5)
   1173c:	db9ff06f          	j	114f4 <_vfprintf_r+0xe08>
   11740:	0d610713          	addi	a4,sp,214
   11744:	00061863          	bnez	a2,11754 <_vfprintf_r+0x1068>
   11748:	03000793          	li	a5,48
   1174c:	0cf10b23          	sb	a5,214(sp)
   11750:	0d710713          	addi	a4,sp,215
   11754:	030a8a93          	addi	s5,s5,48
   11758:	00170793          	addi	a5,a4,1
   1175c:	01570023          	sb	s5,0(a4)
   11760:	d99ff06f          	j	114f8 <_vfprintf_r+0xe0c>
   11764:	000b1663          	bnez	s6,11770 <_vfprintf_r+0x1084>
   11768:	00147713          	andi	a4,s0,1
   1176c:	06070863          	beqz	a4,117dc <_vfprintf_r+0x10f0>
   11770:	02412783          	lw	a5,36(sp)
   11774:	00178713          	addi	a4,a5,1
   11778:	f9dff06f          	j	11714 <_vfprintf_r+0x1028>
   1177c:	034cc063          	blt	s9,s4,1179c <_vfprintf_r+0x10b0>
   11780:	00147713          	andi	a4,s0,1
   11784:	000c8b13          	mv	s6,s9
   11788:	00070663          	beqz	a4,11794 <_vfprintf_r+0x10a8>
   1178c:	02412783          	lw	a5,36(sp)
   11790:	00fc8b33          	add	s6,s9,a5
   11794:	06700793          	li	a5,103
   11798:	f85ff06f          	j	1171c <_vfprintf_r+0x1030>
   1179c:	02412783          	lw	a5,36(sp)
   117a0:	00fa0b33          	add	s6,s4,a5
   117a4:	06700793          	li	a5,103
   117a8:	00f12623          	sw	a5,12(sp)
   117ac:	01904663          	bgtz	s9,117b8 <_vfprintf_r+0x10cc>
   117b0:	419b0333          	sub	t1,s6,s9
   117b4:	00130b13          	addi	s6,t1,1 # 1 <_start-0x10073>
   117b8:	40047b93          	andi	s7,s0,1024
   117bc:	00000c13          	li	s8,0
   117c0:	d60b8ce3          	beqz	s7,11538 <_vfprintf_r+0xe4c>
   117c4:	00000b93          	li	s7,0
   117c8:	d79058e3          	blez	s9,11538 <_vfprintf_r+0xe4c>
   117cc:	0ff00693          	li	a3,255
   117d0:	03c0006f          	j	1180c <_vfprintf_r+0x1120>
   117d4:	000c8b13          	mv	s6,s9
   117d8:	f41ff06f          	j	11718 <_vfprintf_r+0x102c>
   117dc:	06600793          	li	a5,102
   117e0:	00f12623          	sw	a5,12(sp)
   117e4:	00100b13          	li	s6,1
   117e8:	fd1ff06f          	j	117b8 <_vfprintf_r+0x10cc>
   117ec:	03975663          	ble	s9,a4,11818 <_vfprintf_r+0x112c>
   117f0:	01412783          	lw	a5,20(sp)
   117f4:	40ec8cb3          	sub	s9,s9,a4
   117f8:	0017c703          	lbu	a4,1(a5)
   117fc:	02070863          	beqz	a4,1182c <_vfprintf_r+0x1140>
   11800:	00178793          	addi	a5,a5,1
   11804:	001b8b93          	addi	s7,s7,1
   11808:	00f12a23          	sw	a5,20(sp)
   1180c:	01412783          	lw	a5,20(sp)
   11810:	0007c703          	lbu	a4,0(a5)
   11814:	fcd71ce3          	bne	a4,a3,117ec <_vfprintf_r+0x1100>
   11818:	03412583          	lw	a1,52(sp)
   1181c:	018b8533          	add	a0,s7,s8
   11820:	4f9170ef          	jal	ra,29518 <__mulsi3>
   11824:	01650b33          	add	s6,a0,s6
   11828:	d11ff06f          	j	11538 <_vfprintf_r+0xe4c>
   1182c:	001c0c13          	addi	s8,s8,1
   11830:	fddff06f          	j	1180c <_vfprintf_r+0x1120>
   11834:	004c0713          	addi	a4,s8,4
   11838:	00e12e23          	sw	a4,28(sp)
   1183c:	02047713          	andi	a4,s0,32
   11840:	000c2783          	lw	a5,0(s8)
   11844:	02070063          	beqz	a4,11864 <_vfprintf_r+0x1178>
   11848:	02812703          	lw	a4,40(sp)
   1184c:	00e7a023          	sw	a4,0(a5)
   11850:	41f75713          	srai	a4,a4,0x1f
   11854:	00e7a223          	sw	a4,4(a5)
   11858:	01c12c03          	lw	s8,28(sp)
   1185c:	02012483          	lw	s1,32(sp)
   11860:	824ff06f          	j	10884 <_vfprintf_r+0x198>
   11864:	01047713          	andi	a4,s0,16
   11868:	00070863          	beqz	a4,11878 <_vfprintf_r+0x118c>
   1186c:	02812703          	lw	a4,40(sp)
   11870:	00e7a023          	sw	a4,0(a5)
   11874:	fe5ff06f          	j	11858 <_vfprintf_r+0x116c>
   11878:	04047713          	andi	a4,s0,64
   1187c:	00070863          	beqz	a4,1188c <_vfprintf_r+0x11a0>
   11880:	02815703          	lhu	a4,40(sp)
   11884:	00e79023          	sh	a4,0(a5)
   11888:	fd1ff06f          	j	11858 <_vfprintf_r+0x116c>
   1188c:	20047413          	andi	s0,s0,512
   11890:	fc040ee3          	beqz	s0,1186c <_vfprintf_r+0x1180>
   11894:	02814703          	lbu	a4,40(sp)
   11898:	00e78023          	sb	a4,0(a5)
   1189c:	fbdff06f          	j	11858 <_vfprintf_r+0x116c>
   118a0:	01046413          	ori	s0,s0,16
   118a4:	02047793          	andi	a5,s0,32
   118a8:	04078863          	beqz	a5,118f8 <_vfprintf_r+0x120c>
   118ac:	007c0c13          	addi	s8,s8,7
   118b0:	ff8c7c13          	andi	s8,s8,-8
   118b4:	008c0793          	addi	a5,s8,8
   118b8:	000c2c83          	lw	s9,0(s8)
   118bc:	004c2c03          	lw	s8,4(s8)
   118c0:	00f12e23          	sw	a5,28(sp)
   118c4:	bff47413          	andi	s0,s0,-1025
   118c8:	00000793          	li	a5,0
   118cc:	0c0103a3          	sb	zero,199(sp)
   118d0:	fff00713          	li	a4,-1
   118d4:	1aeb0263          	beq	s6,a4,11a78 <_vfprintf_r+0x138c>
   118d8:	00040713          	mv	a4,s0
   118dc:	018ce6b3          	or	a3,s9,s8
   118e0:	f7f47413          	andi	s0,s0,-129
   118e4:	18069a63          	bnez	a3,11a78 <_vfprintf_r+0x138c>
   118e8:	2e0b0c63          	beqz	s6,11be0 <_vfprintf_r+0x14f4>
   118ec:	00100713          	li	a4,1
   118f0:	18e79863          	bne	a5,a4,11a80 <_vfprintf_r+0x1394>
   118f4:	d84ff06f          	j	10e78 <_vfprintf_r+0x78c>
   118f8:	004c0793          	addi	a5,s8,4
   118fc:	00f12e23          	sw	a5,28(sp)
   11900:	01047793          	andi	a5,s0,16
   11904:	00078663          	beqz	a5,11910 <_vfprintf_r+0x1224>
   11908:	000c2c83          	lw	s9,0(s8)
   1190c:	0100006f          	j	1191c <_vfprintf_r+0x1230>
   11910:	04047793          	andi	a5,s0,64
   11914:	00078863          	beqz	a5,11924 <_vfprintf_r+0x1238>
   11918:	000c5c83          	lhu	s9,0(s8)
   1191c:	00000c13          	li	s8,0
   11920:	fa5ff06f          	j	118c4 <_vfprintf_r+0x11d8>
   11924:	20047793          	andi	a5,s0,512
   11928:	fe0780e3          	beqz	a5,11908 <_vfprintf_r+0x121c>
   1192c:	000c4c83          	lbu	s9,0(s8)
   11930:	fedff06f          	j	1191c <_vfprintf_r+0x1230>
   11934:	004c0793          	addi	a5,s8,4
   11938:	00f12e23          	sw	a5,28(sp)
   1193c:	ffff87b7          	lui	a5,0xffff8
   11940:	8307c793          	xori	a5,a5,-2000
   11944:	0cf11423          	sh	a5,200(sp)
   11948:	0002a7b7          	lui	a5,0x2a
   1194c:	91078793          	addi	a5,a5,-1776 # 29910 <zeroes.4377+0x5c>
   11950:	07800713          	li	a4,120
   11954:	000c2c83          	lw	s9,0(s8)
   11958:	04f12223          	sw	a5,68(sp)
   1195c:	00000c13          	li	s8,0
   11960:	00246413          	ori	s0,s0,2
   11964:	00200793          	li	a5,2
   11968:	00e12623          	sw	a4,12(sp)
   1196c:	f61ff06f          	j	118cc <_vfprintf_r+0x11e0>
   11970:	004c0793          	addi	a5,s8,4
   11974:	00f12e23          	sw	a5,28(sp)
   11978:	0c0103a3          	sb	zero,199(sp)
   1197c:	fff00793          	li	a5,-1
   11980:	000c2483          	lw	s1,0(s8)
   11984:	02fb0463          	beq	s6,a5,119ac <_vfprintf_r+0x12c0>
   11988:	000b0613          	mv	a2,s6
   1198c:	00000593          	li	a1,0
   11990:	00048513          	mv	a0,s1
   11994:	351050ef          	jal	ra,174e4 <memchr>
   11998:	00a12823          	sw	a0,16(sp)
   1199c:	de050263          	beqz	a0,10f80 <_vfprintf_r+0x894>
   119a0:	40950b33          	sub	s6,a0,s1
   119a4:	00012823          	sw	zero,16(sp)
   119a8:	dd8ff06f          	j	10f80 <_vfprintf_r+0x894>
   119ac:	00048513          	mv	a0,s1
   119b0:	304070ef          	jal	ra,18cb4 <strlen>
   119b4:	00050b13          	mv	s6,a0
   119b8:	fedff06f          	j	119a4 <_vfprintf_r+0x12b8>
   119bc:	01046413          	ori	s0,s0,16
   119c0:	02047793          	andi	a5,s0,32
   119c4:	02078263          	beqz	a5,119e8 <_vfprintf_r+0x12fc>
   119c8:	007c0c13          	addi	s8,s8,7
   119cc:	ff8c7c13          	andi	s8,s8,-8
   119d0:	008c0793          	addi	a5,s8,8
   119d4:	000c2c83          	lw	s9,0(s8)
   119d8:	004c2c03          	lw	s8,4(s8)
   119dc:	00f12e23          	sw	a5,28(sp)
   119e0:	00100793          	li	a5,1
   119e4:	ee9ff06f          	j	118cc <_vfprintf_r+0x11e0>
   119e8:	004c0793          	addi	a5,s8,4
   119ec:	00f12e23          	sw	a5,28(sp)
   119f0:	01047793          	andi	a5,s0,16
   119f4:	00078663          	beqz	a5,11a00 <_vfprintf_r+0x1314>
   119f8:	000c2c83          	lw	s9,0(s8)
   119fc:	0100006f          	j	11a0c <_vfprintf_r+0x1320>
   11a00:	04047793          	andi	a5,s0,64
   11a04:	00078863          	beqz	a5,11a14 <_vfprintf_r+0x1328>
   11a08:	000c5c83          	lhu	s9,0(s8)
   11a0c:	00000c13          	li	s8,0
   11a10:	fd1ff06f          	j	119e0 <_vfprintf_r+0x12f4>
   11a14:	20047793          	andi	a5,s0,512
   11a18:	fe0780e3          	beqz	a5,119f8 <_vfprintf_r+0x130c>
   11a1c:	000c4c83          	lbu	s9,0(s8)
   11a20:	fedff06f          	j	11a0c <_vfprintf_r+0x1320>
   11a24:	0002a7b7          	lui	a5,0x2a
   11a28:	91078793          	addi	a5,a5,-1776 # 29910 <zeroes.4377+0x5c>
   11a2c:	f3dfe06f          	j	10968 <_vfprintf_r+0x27c>
   11a30:	004c0793          	addi	a5,s8,4
   11a34:	00f12e23          	sw	a5,28(sp)
   11a38:	01047793          	andi	a5,s0,16
   11a3c:	00078663          	beqz	a5,11a48 <_vfprintf_r+0x135c>
   11a40:	000c2c83          	lw	s9,0(s8)
   11a44:	0100006f          	j	11a54 <_vfprintf_r+0x1368>
   11a48:	04047793          	andi	a5,s0,64
   11a4c:	00078863          	beqz	a5,11a5c <_vfprintf_r+0x1370>
   11a50:	000c5c83          	lhu	s9,0(s8)
   11a54:	00000c13          	li	s8,0
   11a58:	f39fe06f          	j	10990 <_vfprintf_r+0x2a4>
   11a5c:	20047793          	andi	a5,s0,512
   11a60:	fe0780e3          	beqz	a5,11a40 <_vfprintf_r+0x1354>
   11a64:	000c4c83          	lbu	s9,0(s8)
   11a68:	fedff06f          	j	11a54 <_vfprintf_r+0x1368>
   11a6c:	00040713          	mv	a4,s0
   11a70:	00100793          	li	a5,1
   11a74:	e69ff06f          	j	118dc <_vfprintf_r+0x11f0>
   11a78:	00100713          	li	a4,1
   11a7c:	bee78863          	beq	a5,a4,10e6c <_vfprintf_r+0x780>
   11a80:	00200713          	li	a4,2
   11a84:	12e78263          	beq	a5,a4,11ba8 <_vfprintf_r+0x14bc>
   11a88:	1b010793          	addi	a5,sp,432
   11a8c:	01dc1693          	slli	a3,s8,0x1d
   11a90:	007cf713          	andi	a4,s9,7
   11a94:	003cdc93          	srli	s9,s9,0x3
   11a98:	03070713          	addi	a4,a4,48
   11a9c:	0196ecb3          	or	s9,a3,s9
   11aa0:	003c5c13          	srli	s8,s8,0x3
   11aa4:	fee78fa3          	sb	a4,-1(a5)
   11aa8:	018ce6b3          	or	a3,s9,s8
   11aac:	fff78493          	addi	s1,a5,-1
   11ab0:	02069e63          	bnez	a3,11aec <_vfprintf_r+0x1400>
   11ab4:	00147693          	andi	a3,s0,1
   11ab8:	00068a63          	beqz	a3,11acc <_vfprintf_r+0x13e0>
   11abc:	03000693          	li	a3,48
   11ac0:	00d70663          	beq	a4,a3,11acc <_vfprintf_r+0x13e0>
   11ac4:	fed48fa3          	sb	a3,-1(s1)
   11ac8:	ffe78493          	addi	s1,a5,-2
   11acc:	1b010793          	addi	a5,sp,432
   11ad0:	000b0a93          	mv	s5,s6
   11ad4:	00012823          	sw	zero,16(sp)
   11ad8:	40978b33          	sub	s6,a5,s1
   11adc:	00000c13          	li	s8,0
   11ae0:	00000b93          	li	s7,0
   11ae4:	00000c93          	li	s9,0
   11ae8:	8a8ff06f          	j	10b90 <_vfprintf_r+0x4a4>
   11aec:	00048793          	mv	a5,s1
   11af0:	f9dff06f          	j	11a8c <_vfprintf_r+0x13a0>
   11af4:	00000a13          	li	s4,0
   11af8:	1b010d93          	addi	s11,sp,432
   11afc:	40047a93          	andi	s5,s0,1024
   11b00:	00900b93          	li	s7,9
   11b04:	00a00613          	li	a2,10
   11b08:	00000693          	li	a3,0
   11b0c:	000c8513          	mv	a0,s9
   11b10:	000c0593          	mv	a1,s8
   11b14:	109110ef          	jal	ra,2341c <__umoddi3>
   11b18:	03050513          	addi	a0,a0,48
   11b1c:	fead8fa3          	sb	a0,-1(s11)
   11b20:	fffd8493          	addi	s1,s11,-1
   11b24:	001a0a13          	addi	s4,s4,1
   11b28:	040a8a63          	beqz	s5,11b7c <_vfprintf_r+0x1490>
   11b2c:	01412783          	lw	a5,20(sp)
   11b30:	0007c783          	lbu	a5,0(a5)
   11b34:	04fa1463          	bne	s4,a5,11b7c <_vfprintf_r+0x1490>
   11b38:	0ff00793          	li	a5,255
   11b3c:	04fa0063          	beq	s4,a5,11b7c <_vfprintf_r+0x1490>
   11b40:	000c1463          	bnez	s8,11b48 <_vfprintf_r+0x145c>
   11b44:	039bfc63          	bleu	s9,s7,11b7c <_vfprintf_r+0x1490>
   11b48:	03412783          	lw	a5,52(sp)
   11b4c:	03c12583          	lw	a1,60(sp)
   11b50:	00000a13          	li	s4,0
   11b54:	40f484b3          	sub	s1,s1,a5
   11b58:	00078613          	mv	a2,a5
   11b5c:	00048513          	mv	a0,s1
   11b60:	174070ef          	jal	ra,18cd4 <strncpy>
   11b64:	01412783          	lw	a5,20(sp)
   11b68:	0017c783          	lbu	a5,1(a5)
   11b6c:	00078863          	beqz	a5,11b7c <_vfprintf_r+0x1490>
   11b70:	01412783          	lw	a5,20(sp)
   11b74:	00178793          	addi	a5,a5,1
   11b78:	00f12a23          	sw	a5,20(sp)
   11b7c:	000c8513          	mv	a0,s9
   11b80:	000c0593          	mv	a1,s8
   11b84:	00a00613          	li	a2,10
   11b88:	00000693          	li	a3,0
   11b8c:	2b4110ef          	jal	ra,22e40 <__udivdi3>
   11b90:	00058c13          	mv	s8,a1
   11b94:	00a5e5b3          	or	a1,a1,a0
   11b98:	00050c93          	mv	s9,a0
   11b9c:	f20588e3          	beqz	a1,11acc <_vfprintf_r+0x13e0>
   11ba0:	00048d93          	mv	s11,s1
   11ba4:	f61ff06f          	j	11b04 <_vfprintf_r+0x1418>
   11ba8:	1b010493          	addi	s1,sp,432
   11bac:	04412703          	lw	a4,68(sp)
   11bb0:	00fcf793          	andi	a5,s9,15
   11bb4:	fff48493          	addi	s1,s1,-1
   11bb8:	00f707b3          	add	a5,a4,a5
   11bbc:	0007c783          	lbu	a5,0(a5)
   11bc0:	004cdc93          	srli	s9,s9,0x4
   11bc4:	00f48023          	sb	a5,0(s1)
   11bc8:	01cc1793          	slli	a5,s8,0x1c
   11bcc:	0197ecb3          	or	s9,a5,s9
   11bd0:	004c5c13          	srli	s8,s8,0x4
   11bd4:	018ce7b3          	or	a5,s9,s8
   11bd8:	fc079ae3          	bnez	a5,11bac <_vfprintf_r+0x14c0>
   11bdc:	ef1ff06f          	j	11acc <_vfprintf_r+0x13e0>
   11be0:	1b010493          	addi	s1,sp,432
   11be4:	ee0794e3          	bnez	a5,11acc <_vfprintf_r+0x13e0>
   11be8:	00177713          	andi	a4,a4,1
   11bec:	ee0700e3          	beqz	a4,11acc <_vfprintf_r+0x13e0>
   11bf0:	03000793          	li	a5,48
   11bf4:	1af107a3          	sb	a5,431(sp)
   11bf8:	a88ff06f          	j	10e80 <_vfprintf_r+0x794>
   11bfc:	00c12783          	lw	a5,12(sp)
   11c00:	2e078ce3          	beqz	a5,126f8 <_vfprintf_r+0x200c>
   11c04:	00c14783          	lbu	a5,12(sp)
   11c08:	0c0103a3          	sb	zero,199(sp)
   11c0c:	01812e23          	sw	s8,28(sp)
   11c10:	14f10623          	sb	a5,332(sp)
   11c14:	f61fe06f          	j	10b74 <_vfprintf_r+0x488>
   11c18:	01060613          	addi	a2,a2,16
   11c1c:	01dd2223          	sw	t4,4(s10)
   11c20:	0ec12623          	sw	a2,236(sp)
   11c24:	0ed12423          	sw	a3,232(sp)
   11c28:	02df5e63          	ble	a3,t5,11c64 <_vfprintf_r+0x1578>
   11c2c:	0e410613          	addi	a2,sp,228
   11c30:	00090593          	mv	a1,s2
   11c34:	00098513          	mv	a0,s3
   11c38:	05e12c23          	sw	t5,88(sp)
   11c3c:	05c12a23          	sw	t3,84(sp)
   11c40:	05d12823          	sw	t4,80(sp)
   11c44:	04e12623          	sw	a4,76(sp)
   11c48:	5800b0ef          	jal	ra,1d1c8 <__sprint_r>
   11c4c:	240514e3          	bnez	a0,12694 <_vfprintf_r+0x1fa8>
   11c50:	05812f03          	lw	t5,88(sp)
   11c54:	05412e03          	lw	t3,84(sp)
   11c58:	05012e83          	lw	t4,80(sp)
   11c5c:	04c12703          	lw	a4,76(sp)
   11c60:	10c10593          	addi	a1,sp,268
   11c64:	ff070713          	addi	a4,a4,-16
   11c68:	00058d13          	mv	s10,a1
   11c6c:	f85fe06f          	j	10bf0 <_vfprintf_r+0x504>
   11c70:	01812583          	lw	a1,24(sp)
   11c74:	01068693          	addi	a3,a3,16
   11c78:	00fd2223          	sw	a5,4(s10)
   11c7c:	00bd2023          	sw	a1,0(s10)
   11c80:	0ed12623          	sw	a3,236(sp)
   11c84:	0ee12423          	sw	a4,232(sp)
   11c88:	02ee5663          	ble	a4,t3,11cb4 <_vfprintf_r+0x15c8>
   11c8c:	0e410613          	addi	a2,sp,228
   11c90:	00090593          	mv	a1,s2
   11c94:	00098513          	mv	a0,s3
   11c98:	05c12623          	sw	t3,76(sp)
   11c9c:	04f12423          	sw	a5,72(sp)
   11ca0:	5280b0ef          	jal	ra,1d1c8 <__sprint_r>
   11ca4:	1e0518e3          	bnez	a0,12694 <_vfprintf_r+0x1fa8>
   11ca8:	04c12e03          	lw	t3,76(sp)
   11cac:	04812783          	lw	a5,72(sp)
   11cb0:	10c10613          	addi	a2,sp,268
   11cb4:	ff0d8d93          	addi	s11,s11,-16
   11cb8:	00060d13          	mv	s10,a2
   11cbc:	858ff06f          	j	10d14 <_vfprintf_r+0x628>
   11cc0:	01068693          	addi	a3,a3,16
   11cc4:	01bd2223          	sw	s11,4(s10)
   11cc8:	0ed12623          	sw	a3,236(sp)
   11ccc:	0ee12423          	sw	a4,232(sp)
   11cd0:	02e85263          	ble	a4,a6,11cf4 <_vfprintf_r+0x1608>
   11cd4:	0e410613          	addi	a2,sp,228
   11cd8:	00090593          	mv	a1,s2
   11cdc:	00098513          	mv	a0,s3
   11ce0:	05012423          	sw	a6,72(sp)
   11ce4:	4e40b0ef          	jal	ra,1d1c8 <__sprint_r>
   11ce8:	1a0516e3          	bnez	a0,12694 <_vfprintf_r+0x1fa8>
   11cec:	04812803          	lw	a6,72(sp)
   11cf0:	10c10613          	addi	a2,sp,268
   11cf4:	ff0a8a93          	addi	s5,s5,-16
   11cf8:	00060d13          	mv	s10,a2
   11cfc:	87cff06f          	j	10d78 <_vfprintf_r+0x68c>
   11d00:	00c12783          	lw	a5,12(sp)
   11d04:	06500713          	li	a4,101
   11d08:	72f75463          	ble	a5,a4,12430 <_vfprintf_r+0x1d44>
   11d0c:	0f012703          	lw	a4,240(sp)
   11d10:	0a010593          	addi	a1,sp,160
   11d14:	0b010513          	addi	a0,sp,176
   11d18:	0ae12823          	sw	a4,176(sp)
   11d1c:	0f412703          	lw	a4,244(sp)
   11d20:	0a012023          	sw	zero,160(sp)
   11d24:	0a012223          	sw	zero,164(sp)
   11d28:	0ae12a23          	sw	a4,180(sp)
   11d2c:	0f812703          	lw	a4,248(sp)
   11d30:	0a012423          	sw	zero,168(sp)
   11d34:	0a012623          	sw	zero,172(sp)
   11d38:	0ae12c23          	sw	a4,184(sp)
   11d3c:	0fc12703          	lw	a4,252(sp)
   11d40:	0ae12e23          	sw	a4,188(sp)
   11d44:	7e1130ef          	jal	ra,25d24 <__eqtf2>
   11d48:	12051a63          	bnez	a0,11e7c <_vfprintf_r+0x1790>
   11d4c:	0002a7b7          	lui	a5,0x2a
   11d50:	93878793          	addi	a5,a5,-1736 # 29938 <zeroes.4377+0x84>
   11d54:	00fd2023          	sw	a5,0(s10)
   11d58:	00100793          	li	a5,1
   11d5c:	00fd2223          	sw	a5,4(s10)
   11d60:	0e812783          	lw	a5,232(sp)
   11d64:	001d8d93          	addi	s11,s11,1
   11d68:	0fb12623          	sw	s11,236(sp)
   11d6c:	00178793          	addi	a5,a5,1
   11d70:	0ef12423          	sw	a5,232(sp)
   11d74:	00700713          	li	a4,7
   11d78:	008d0d13          	addi	s10,s10,8
   11d7c:	00f75e63          	ble	a5,a4,11d98 <_vfprintf_r+0x16ac>
   11d80:	0e410613          	addi	a2,sp,228
   11d84:	00090593          	mv	a1,s2
   11d88:	00098513          	mv	a0,s3
   11d8c:	43c0b0ef          	jal	ra,1d1c8 <__sprint_r>
   11d90:	100512e3          	bnez	a0,12694 <_vfprintf_r+0x1fa8>
   11d94:	10c10d13          	addi	s10,sp,268
   11d98:	0cc12783          	lw	a5,204(sp)
   11d9c:	0147c663          	blt	a5,s4,11da8 <_vfprintf_r+0x16bc>
   11da0:	00147793          	andi	a5,s0,1
   11da4:	22078263          	beqz	a5,11fc8 <_vfprintf_r+0x18dc>
   11da8:	03812783          	lw	a5,56(sp)
   11dac:	02412703          	lw	a4,36(sp)
   11db0:	008d0d13          	addi	s10,s10,8
   11db4:	fefd2c23          	sw	a5,-8(s10)
   11db8:	02412783          	lw	a5,36(sp)
   11dbc:	fefd2e23          	sw	a5,-4(s10)
   11dc0:	0ec12783          	lw	a5,236(sp)
   11dc4:	00e787b3          	add	a5,a5,a4
   11dc8:	0ef12623          	sw	a5,236(sp)
   11dcc:	0e812783          	lw	a5,232(sp)
   11dd0:	00700713          	li	a4,7
   11dd4:	00178793          	addi	a5,a5,1
   11dd8:	0ef12423          	sw	a5,232(sp)
   11ddc:	00f75e63          	ble	a5,a4,11df8 <_vfprintf_r+0x170c>
   11de0:	0e410613          	addi	a2,sp,228
   11de4:	00090593          	mv	a1,s2
   11de8:	00098513          	mv	a0,s3
   11dec:	3dc0b0ef          	jal	ra,1d1c8 <__sprint_r>
   11df0:	0a0512e3          	bnez	a0,12694 <_vfprintf_r+0x1fa8>
   11df4:	10c10d13          	addi	s10,sp,268
   11df8:	fffa0493          	addi	s1,s4,-1
   11dfc:	1c905663          	blez	s1,11fc8 <_vfprintf_r+0x18dc>
   11e00:	01000a93          	li	s5,16
   11e04:	00700b93          	li	s7,7
   11e08:	01812603          	lw	a2,24(sp)
   11e0c:	0e812783          	lw	a5,232(sp)
   11e10:	0ec12703          	lw	a4,236(sp)
   11e14:	00cd2023          	sw	a2,0(s10)
   11e18:	00178793          	addi	a5,a5,1
   11e1c:	008d0693          	addi	a3,s10,8
   11e20:	029ac263          	blt	s5,s1,11e44 <_vfprintf_r+0x1758>
   11e24:	009d2223          	sw	s1,4(s10)
   11e28:	00e484b3          	add	s1,s1,a4
   11e2c:	0e912623          	sw	s1,236(sp)
   11e30:	0ef12423          	sw	a5,232(sp)
   11e34:	00700713          	li	a4,7
   11e38:	00068d13          	mv	s10,a3
   11e3c:	18f75663          	ble	a5,a4,11fc8 <_vfprintf_r+0x18dc>
   11e40:	fc5fe06f          	j	10e04 <_vfprintf_r+0x718>
   11e44:	01070713          	addi	a4,a4,16
   11e48:	015d2223          	sw	s5,4(s10)
   11e4c:	0ee12623          	sw	a4,236(sp)
   11e50:	0ef12423          	sw	a5,232(sp)
   11e54:	00fbde63          	ble	a5,s7,11e70 <_vfprintf_r+0x1784>
   11e58:	0e410613          	addi	a2,sp,228
   11e5c:	00090593          	mv	a1,s2
   11e60:	00098513          	mv	a0,s3
   11e64:	3640b0ef          	jal	ra,1d1c8 <__sprint_r>
   11e68:	020516e3          	bnez	a0,12694 <_vfprintf_r+0x1fa8>
   11e6c:	10c10693          	addi	a3,sp,268
   11e70:	ff048493          	addi	s1,s1,-16
   11e74:	00068d13          	mv	s10,a3
   11e78:	f91ff06f          	j	11e08 <_vfprintf_r+0x171c>
   11e7c:	0cc12703          	lw	a4,204(sp)
   11e80:	1ce04a63          	bgtz	a4,12054 <_vfprintf_r+0x1968>
   11e84:	0002a7b7          	lui	a5,0x2a
   11e88:	93878793          	addi	a5,a5,-1736 # 29938 <zeroes.4377+0x84>
   11e8c:	00fd2023          	sw	a5,0(s10)
   11e90:	00100793          	li	a5,1
   11e94:	00fd2223          	sw	a5,4(s10)
   11e98:	0e812783          	lw	a5,232(sp)
   11e9c:	001d8d93          	addi	s11,s11,1
   11ea0:	0fb12623          	sw	s11,236(sp)
   11ea4:	00178793          	addi	a5,a5,1
   11ea8:	0ef12423          	sw	a5,232(sp)
   11eac:	00700713          	li	a4,7
   11eb0:	008d0d13          	addi	s10,s10,8
   11eb4:	00f75e63          	ble	a5,a4,11ed0 <_vfprintf_r+0x17e4>
   11eb8:	0e410613          	addi	a2,sp,228
   11ebc:	00090593          	mv	a1,s2
   11ec0:	00098513          	mv	a0,s3
   11ec4:	3040b0ef          	jal	ra,1d1c8 <__sprint_r>
   11ec8:	7c051663          	bnez	a0,12694 <_vfprintf_r+0x1fa8>
   11ecc:	10c10d13          	addi	s10,sp,268
   11ed0:	0cc12783          	lw	a5,204(sp)
   11ed4:	00079863          	bnez	a5,11ee4 <_vfprintf_r+0x17f8>
   11ed8:	000a1663          	bnez	s4,11ee4 <_vfprintf_r+0x17f8>
   11edc:	00147793          	andi	a5,s0,1
   11ee0:	0e078463          	beqz	a5,11fc8 <_vfprintf_r+0x18dc>
   11ee4:	03812783          	lw	a5,56(sp)
   11ee8:	02412703          	lw	a4,36(sp)
   11eec:	008d0893          	addi	a7,s10,8
   11ef0:	00fd2023          	sw	a5,0(s10)
   11ef4:	02412783          	lw	a5,36(sp)
   11ef8:	00fd2223          	sw	a5,4(s10)
   11efc:	0ec12783          	lw	a5,236(sp)
   11f00:	00e787b3          	add	a5,a5,a4
   11f04:	0ef12623          	sw	a5,236(sp)
   11f08:	0e812783          	lw	a5,232(sp)
   11f0c:	00700713          	li	a4,7
   11f10:	00178793          	addi	a5,a5,1
   11f14:	0ef12423          	sw	a5,232(sp)
   11f18:	00f75e63          	ble	a5,a4,11f34 <_vfprintf_r+0x1848>
   11f1c:	0e410613          	addi	a2,sp,228
   11f20:	00090593          	mv	a1,s2
   11f24:	00098513          	mv	a0,s3
   11f28:	2a00b0ef          	jal	ra,1d1c8 <__sprint_r>
   11f2c:	76051463          	bnez	a0,12694 <_vfprintf_r+0x1fa8>
   11f30:	10c10893          	addi	a7,sp,268
   11f34:	0cc12a83          	lw	s5,204(sp)
   11f38:	060ad063          	bgez	s5,11f98 <_vfprintf_r+0x18ac>
   11f3c:	41500ab3          	neg	s5,s5
   11f40:	00088713          	mv	a4,a7
   11f44:	01000b93          	li	s7,16
   11f48:	00700c13          	li	s8,7
   11f4c:	01812603          	lw	a2,24(sp)
   11f50:	0e812783          	lw	a5,232(sp)
   11f54:	0ec12683          	lw	a3,236(sp)
   11f58:	00c72023          	sw	a2,0(a4)
   11f5c:	00178793          	addi	a5,a5,1
   11f60:	00888893          	addi	a7,a7,8
   11f64:	0b5bcc63          	blt	s7,s5,1201c <_vfprintf_r+0x1930>
   11f68:	01572223          	sw	s5,4(a4)
   11f6c:	00da8ab3          	add	s5,s5,a3
   11f70:	0f512623          	sw	s5,236(sp)
   11f74:	0ef12423          	sw	a5,232(sp)
   11f78:	00700713          	li	a4,7
   11f7c:	00f75e63          	ble	a5,a4,11f98 <_vfprintf_r+0x18ac>
   11f80:	0e410613          	addi	a2,sp,228
   11f84:	00090593          	mv	a1,s2
   11f88:	00098513          	mv	a0,s3
   11f8c:	23c0b0ef          	jal	ra,1d1c8 <__sprint_r>
   11f90:	70051263          	bnez	a0,12694 <_vfprintf_r+0x1fa8>
   11f94:	10c10893          	addi	a7,sp,268
   11f98:	0ec12783          	lw	a5,236(sp)
   11f9c:	0098a023          	sw	s1,0(a7)
   11fa0:	0148a223          	sw	s4,4(a7)
   11fa4:	014787b3          	add	a5,a5,s4
   11fa8:	0ef12623          	sw	a5,236(sp)
   11fac:	0e812783          	lw	a5,232(sp)
   11fb0:	00700713          	li	a4,7
   11fb4:	00888d13          	addi	s10,a7,8
   11fb8:	00178793          	addi	a5,a5,1
   11fbc:	0ef12423          	sw	a5,232(sp)
   11fc0:	00f75463          	ble	a5,a4,11fc8 <_vfprintf_r+0x18dc>
   11fc4:	e41fe06f          	j	10e04 <_vfprintf_r+0x718>
   11fc8:	00447413          	andi	s0,s0,4
   11fcc:	66041463          	bnez	s0,12634 <_vfprintf_r+0x1f48>
   11fd0:	02c12d03          	lw	s10,44(sp)
   11fd4:	03012783          	lw	a5,48(sp)
   11fd8:	00fd5463          	ble	a5,s10,11fe0 <_vfprintf_r+0x18f4>
   11fdc:	00078d13          	mv	s10,a5
   11fe0:	02812783          	lw	a5,40(sp)
   11fe4:	01a787b3          	add	a5,a5,s10
   11fe8:	02f12423          	sw	a5,40(sp)
   11fec:	0ec12783          	lw	a5,236(sp)
   11ff0:	00078c63          	beqz	a5,12008 <_vfprintf_r+0x191c>
   11ff4:	0e410613          	addi	a2,sp,228
   11ff8:	00090593          	mv	a1,s2
   11ffc:	00098513          	mv	a0,s3
   12000:	1c80b0ef          	jal	ra,1d1c8 <__sprint_r>
   12004:	68051863          	bnez	a0,12694 <_vfprintf_r+0x1fa8>
   12008:	01012783          	lw	a5,16(sp)
   1200c:	0e012423          	sw	zero,232(sp)
   12010:	6c079c63          	bnez	a5,126e8 <_vfprintf_r+0x1ffc>
   12014:	10c10d13          	addi	s10,sp,268
   12018:	841ff06f          	j	11858 <_vfprintf_r+0x116c>
   1201c:	01068693          	addi	a3,a3,16
   12020:	01772223          	sw	s7,4(a4)
   12024:	0ed12623          	sw	a3,236(sp)
   12028:	0ef12423          	sw	a5,232(sp)
   1202c:	00fc5e63          	ble	a5,s8,12048 <_vfprintf_r+0x195c>
   12030:	0e410613          	addi	a2,sp,228
   12034:	00090593          	mv	a1,s2
   12038:	00098513          	mv	a0,s3
   1203c:	18c0b0ef          	jal	ra,1d1c8 <__sprint_r>
   12040:	64051a63          	bnez	a0,12694 <_vfprintf_r+0x1fa8>
   12044:	10c10893          	addi	a7,sp,268
   12048:	ff0a8a93          	addi	s5,s5,-16
   1204c:	00088713          	mv	a4,a7
   12050:	efdff06f          	j	11f4c <_vfprintf_r+0x1860>
   12054:	000c8a93          	mv	s5,s9
   12058:	019a5463          	ble	s9,s4,12060 <_vfprintf_r+0x1974>
   1205c:	000a0a93          	mv	s5,s4
   12060:	05505263          	blez	s5,120a4 <_vfprintf_r+0x19b8>
   12064:	0e812703          	lw	a4,232(sp)
   12068:	01ba8db3          	add	s11,s5,s11
   1206c:	009d2023          	sw	s1,0(s10)
   12070:	00170713          	addi	a4,a4,1
   12074:	015d2223          	sw	s5,4(s10)
   12078:	0fb12623          	sw	s11,236(sp)
   1207c:	0ee12423          	sw	a4,232(sp)
   12080:	00700693          	li	a3,7
   12084:	008d0d13          	addi	s10,s10,8
   12088:	00e6de63          	ble	a4,a3,120a4 <_vfprintf_r+0x19b8>
   1208c:	0e410613          	addi	a2,sp,228
   12090:	00090593          	mv	a1,s2
   12094:	00098513          	mv	a0,s3
   12098:	1300b0ef          	jal	ra,1d1c8 <__sprint_r>
   1209c:	5e051c63          	bnez	a0,12694 <_vfprintf_r+0x1fa8>
   120a0:	10c10d13          	addi	s10,sp,268
   120a4:	000ad463          	bgez	s5,120ac <_vfprintf_r+0x19c0>
   120a8:	00000a93          	li	s5,0
   120ac:	415c8ab3          	sub	s5,s9,s5
   120b0:	05505e63          	blez	s5,1210c <_vfprintf_r+0x1a20>
   120b4:	01000b13          	li	s6,16
   120b8:	00700d93          	li	s11,7
   120bc:	01812783          	lw	a5,24(sp)
   120c0:	0e812703          	lw	a4,232(sp)
   120c4:	0ec12683          	lw	a3,236(sp)
   120c8:	00fd2023          	sw	a5,0(s10)
   120cc:	00170713          	addi	a4,a4,1
   120d0:	008d0613          	addi	a2,s10,8
   120d4:	195b4c63          	blt	s6,s5,1226c <_vfprintf_r+0x1b80>
   120d8:	015d2223          	sw	s5,4(s10)
   120dc:	00da8ab3          	add	s5,s5,a3
   120e0:	0f512623          	sw	s5,236(sp)
   120e4:	0ee12423          	sw	a4,232(sp)
   120e8:	00700693          	li	a3,7
   120ec:	00060d13          	mv	s10,a2
   120f0:	00e6de63          	ble	a4,a3,1210c <_vfprintf_r+0x1a20>
   120f4:	0e410613          	addi	a2,sp,228
   120f8:	00090593          	mv	a1,s2
   120fc:	00098513          	mv	a0,s3
   12100:	0c80b0ef          	jal	ra,1d1c8 <__sprint_r>
   12104:	58051863          	bnez	a0,12694 <_vfprintf_r+0x1fa8>
   12108:	10c10d13          	addi	s10,sp,268
   1210c:	40047793          	andi	a5,s0,1024
   12110:	01948ab3          	add	s5,s1,s9
   12114:	02078063          	beqz	a5,12134 <_vfprintf_r+0x1a48>
   12118:	00700b13          	li	s6,7
   1211c:	01448db3          	add	s11,s1,s4
   12120:	180b9263          	bnez	s7,122a4 <_vfprintf_r+0x1bb8>
   12124:	180c1263          	bnez	s8,122a8 <_vfprintf_r+0x1bbc>
   12128:	014487b3          	add	a5,s1,s4
   1212c:	0157f463          	bleu	s5,a5,12134 <_vfprintf_r+0x1a48>
   12130:	00078a93          	mv	s5,a5
   12134:	0cc12783          	lw	a5,204(sp)
   12138:	0147c663          	blt	a5,s4,12144 <_vfprintf_r+0x1a58>
   1213c:	00147793          	andi	a5,s0,1
   12140:	04078a63          	beqz	a5,12194 <_vfprintf_r+0x1aa8>
   12144:	03812783          	lw	a5,56(sp)
   12148:	02412703          	lw	a4,36(sp)
   1214c:	008d0d13          	addi	s10,s10,8
   12150:	fefd2c23          	sw	a5,-8(s10)
   12154:	02412783          	lw	a5,36(sp)
   12158:	fefd2e23          	sw	a5,-4(s10)
   1215c:	0ec12783          	lw	a5,236(sp)
   12160:	00e787b3          	add	a5,a5,a4
   12164:	0ef12623          	sw	a5,236(sp)
   12168:	0e812783          	lw	a5,232(sp)
   1216c:	00700713          	li	a4,7
   12170:	00178793          	addi	a5,a5,1
   12174:	0ef12423          	sw	a5,232(sp)
   12178:	00f75e63          	ble	a5,a4,12194 <_vfprintf_r+0x1aa8>
   1217c:	0e410613          	addi	a2,sp,228
   12180:	00090593          	mv	a1,s2
   12184:	00098513          	mv	a0,s3
   12188:	0400b0ef          	jal	ra,1d1c8 <__sprint_r>
   1218c:	50051463          	bnez	a0,12694 <_vfprintf_r+0x1fa8>
   12190:	10c10d13          	addi	s10,sp,268
   12194:	014484b3          	add	s1,s1,s4
   12198:	415487b3          	sub	a5,s1,s5
   1219c:	0cc12483          	lw	s1,204(sp)
   121a0:	409a04b3          	sub	s1,s4,s1
   121a4:	0097d463          	ble	s1,a5,121ac <_vfprintf_r+0x1ac0>
   121a8:	00078493          	mv	s1,a5
   121ac:	04905463          	blez	s1,121f4 <_vfprintf_r+0x1b08>
   121b0:	0ec12783          	lw	a5,236(sp)
   121b4:	015d2023          	sw	s5,0(s10)
   121b8:	009d2223          	sw	s1,4(s10)
   121bc:	00f487b3          	add	a5,s1,a5
   121c0:	0ef12623          	sw	a5,236(sp)
   121c4:	0e812783          	lw	a5,232(sp)
   121c8:	00700713          	li	a4,7
   121cc:	008d0d13          	addi	s10,s10,8
   121d0:	00178793          	addi	a5,a5,1
   121d4:	0ef12423          	sw	a5,232(sp)
   121d8:	00f75e63          	ble	a5,a4,121f4 <_vfprintf_r+0x1b08>
   121dc:	0e410613          	addi	a2,sp,228
   121e0:	00090593          	mv	a1,s2
   121e4:	00098513          	mv	a0,s3
   121e8:	7e10a0ef          	jal	ra,1d1c8 <__sprint_r>
   121ec:	4a051463          	bnez	a0,12694 <_vfprintf_r+0x1fa8>
   121f0:	10c10d13          	addi	s10,sp,268
   121f4:	00048793          	mv	a5,s1
   121f8:	0004d463          	bgez	s1,12200 <_vfprintf_r+0x1b14>
   121fc:	00000793          	li	a5,0
   12200:	0cc12483          	lw	s1,204(sp)
   12204:	409a04b3          	sub	s1,s4,s1
   12208:	40f484b3          	sub	s1,s1,a5
   1220c:	da905ee3          	blez	s1,11fc8 <_vfprintf_r+0x18dc>
   12210:	01000a93          	li	s5,16
   12214:	00700b93          	li	s7,7
   12218:	01812603          	lw	a2,24(sp)
   1221c:	0e812783          	lw	a5,232(sp)
   12220:	0ec12703          	lw	a4,236(sp)
   12224:	00cd2023          	sw	a2,0(s10)
   12228:	00178793          	addi	a5,a5,1
   1222c:	008d0693          	addi	a3,s10,8
   12230:	be9adae3          	ble	s1,s5,11e24 <_vfprintf_r+0x1738>
   12234:	01070713          	addi	a4,a4,16
   12238:	015d2223          	sw	s5,4(s10)
   1223c:	0ee12623          	sw	a4,236(sp)
   12240:	0ef12423          	sw	a5,232(sp)
   12244:	00fbde63          	ble	a5,s7,12260 <_vfprintf_r+0x1b74>
   12248:	0e410613          	addi	a2,sp,228
   1224c:	00090593          	mv	a1,s2
   12250:	00098513          	mv	a0,s3
   12254:	7750a0ef          	jal	ra,1d1c8 <__sprint_r>
   12258:	42051e63          	bnez	a0,12694 <_vfprintf_r+0x1fa8>
   1225c:	10c10693          	addi	a3,sp,268
   12260:	ff048493          	addi	s1,s1,-16
   12264:	00068d13          	mv	s10,a3
   12268:	fb1ff06f          	j	12218 <_vfprintf_r+0x1b2c>
   1226c:	01068693          	addi	a3,a3,16
   12270:	016d2223          	sw	s6,4(s10)
   12274:	0ed12623          	sw	a3,236(sp)
   12278:	0ee12423          	sw	a4,232(sp)
   1227c:	00edde63          	ble	a4,s11,12298 <_vfprintf_r+0x1bac>
   12280:	0e410613          	addi	a2,sp,228
   12284:	00090593          	mv	a1,s2
   12288:	00098513          	mv	a0,s3
   1228c:	73d0a0ef          	jal	ra,1d1c8 <__sprint_r>
   12290:	40051263          	bnez	a0,12694 <_vfprintf_r+0x1fa8>
   12294:	10c10613          	addi	a2,sp,268
   12298:	ff0a8a93          	addi	s5,s5,-16
   1229c:	00060d13          	mv	s10,a2
   122a0:	e1dff06f          	j	120bc <_vfprintf_r+0x19d0>
   122a4:	0e0c0263          	beqz	s8,12388 <_vfprintf_r+0x1c9c>
   122a8:	fffc0c13          	addi	s8,s8,-1
   122ac:	03c12783          	lw	a5,60(sp)
   122b0:	03412703          	lw	a4,52(sp)
   122b4:	008d0d13          	addi	s10,s10,8
   122b8:	fefd2c23          	sw	a5,-8(s10)
   122bc:	03412783          	lw	a5,52(sp)
   122c0:	fefd2e23          	sw	a5,-4(s10)
   122c4:	0ec12783          	lw	a5,236(sp)
   122c8:	00e787b3          	add	a5,a5,a4
   122cc:	0ef12623          	sw	a5,236(sp)
   122d0:	0e812783          	lw	a5,232(sp)
   122d4:	00178793          	addi	a5,a5,1
   122d8:	0ef12423          	sw	a5,232(sp)
   122dc:	00fb5e63          	ble	a5,s6,122f8 <_vfprintf_r+0x1c0c>
   122e0:	0e410613          	addi	a2,sp,228
   122e4:	00090593          	mv	a1,s2
   122e8:	00098513          	mv	a0,s3
   122ec:	6dd0a0ef          	jal	ra,1d1c8 <__sprint_r>
   122f0:	3a051263          	bnez	a0,12694 <_vfprintf_r+0x1fa8>
   122f4:	10c10d13          	addi	s10,sp,268
   122f8:	01412783          	lw	a5,20(sp)
   122fc:	415d8733          	sub	a4,s11,s5
   12300:	0007c783          	lbu	a5,0(a5)
   12304:	00f75463          	ble	a5,a4,1230c <_vfprintf_r+0x1c20>
   12308:	00070793          	mv	a5,a4
   1230c:	04f05663          	blez	a5,12358 <_vfprintf_r+0x1c6c>
   12310:	0ec12703          	lw	a4,236(sp)
   12314:	015d2023          	sw	s5,0(s10)
   12318:	00fd2223          	sw	a5,4(s10)
   1231c:	00e78733          	add	a4,a5,a4
   12320:	0ee12623          	sw	a4,236(sp)
   12324:	0e812703          	lw	a4,232(sp)
   12328:	008d0d13          	addi	s10,s10,8
   1232c:	00170713          	addi	a4,a4,1
   12330:	0ee12423          	sw	a4,232(sp)
   12334:	02eb5263          	ble	a4,s6,12358 <_vfprintf_r+0x1c6c>
   12338:	0e410613          	addi	a2,sp,228
   1233c:	00090593          	mv	a1,s2
   12340:	00098513          	mv	a0,s3
   12344:	00f12623          	sw	a5,12(sp)
   12348:	6810a0ef          	jal	ra,1d1c8 <__sprint_r>
   1234c:	34051463          	bnez	a0,12694 <_vfprintf_r+0x1fa8>
   12350:	00c12783          	lw	a5,12(sp)
   12354:	10c10d13          	addi	s10,sp,268
   12358:	00078713          	mv	a4,a5
   1235c:	0007d463          	bgez	a5,12364 <_vfprintf_r+0x1c78>
   12360:	00000713          	li	a4,0
   12364:	01412783          	lw	a5,20(sp)
   12368:	01000813          	li	a6,16
   1236c:	0007c783          	lbu	a5,0(a5)
   12370:	40e787b3          	sub	a5,a5,a4
   12374:	06f04663          	bgtz	a5,123e0 <_vfprintf_r+0x1cf4>
   12378:	01412783          	lw	a5,20(sp)
   1237c:	0007c783          	lbu	a5,0(a5)
   12380:	00fa8ab3          	add	s5,s5,a5
   12384:	d9dff06f          	j	12120 <_vfprintf_r+0x1a34>
   12388:	01412783          	lw	a5,20(sp)
   1238c:	fffb8b93          	addi	s7,s7,-1
   12390:	fff78793          	addi	a5,a5,-1
   12394:	00f12a23          	sw	a5,20(sp)
   12398:	f15ff06f          	j	122ac <_vfprintf_r+0x1bc0>
   1239c:	01068693          	addi	a3,a3,16
   123a0:	010d2223          	sw	a6,4(s10)
   123a4:	0ed12623          	sw	a3,236(sp)
   123a8:	0ee12423          	sw	a4,232(sp)
   123ac:	02eb5663          	ble	a4,s6,123d8 <_vfprintf_r+0x1cec>
   123b0:	0e410613          	addi	a2,sp,228
   123b4:	00090593          	mv	a1,s2
   123b8:	00098513          	mv	a0,s3
   123bc:	05012423          	sw	a6,72(sp)
   123c0:	00f12623          	sw	a5,12(sp)
   123c4:	6050a0ef          	jal	ra,1d1c8 <__sprint_r>
   123c8:	2c051663          	bnez	a0,12694 <_vfprintf_r+0x1fa8>
   123cc:	04812803          	lw	a6,72(sp)
   123d0:	00c12783          	lw	a5,12(sp)
   123d4:	10c10613          	addi	a2,sp,268
   123d8:	ff078793          	addi	a5,a5,-16
   123dc:	00060d13          	mv	s10,a2
   123e0:	01812583          	lw	a1,24(sp)
   123e4:	0e812703          	lw	a4,232(sp)
   123e8:	0ec12683          	lw	a3,236(sp)
   123ec:	00bd2023          	sw	a1,0(s10)
   123f0:	00170713          	addi	a4,a4,1
   123f4:	008d0613          	addi	a2,s10,8
   123f8:	faf842e3          	blt	a6,a5,1239c <_vfprintf_r+0x1cb0>
   123fc:	00fd2223          	sw	a5,4(s10)
   12400:	00d787b3          	add	a5,a5,a3
   12404:	0ef12623          	sw	a5,236(sp)
   12408:	0ee12423          	sw	a4,232(sp)
   1240c:	00060d13          	mv	s10,a2
   12410:	f6eb54e3          	ble	a4,s6,12378 <_vfprintf_r+0x1c8c>
   12414:	0e410613          	addi	a2,sp,228
   12418:	00090593          	mv	a1,s2
   1241c:	00098513          	mv	a0,s3
   12420:	5a90a0ef          	jal	ra,1d1c8 <__sprint_r>
   12424:	26051863          	bnez	a0,12694 <_vfprintf_r+0x1fa8>
   12428:	10c10d13          	addi	s10,sp,268
   1242c:	f4dff06f          	j	12378 <_vfprintf_r+0x1c8c>
   12430:	0e812783          	lw	a5,232(sp)
   12434:	00100713          	li	a4,1
   12438:	009d2023          	sw	s1,0(s10)
   1243c:	001d8d93          	addi	s11,s11,1
   12440:	00178793          	addi	a5,a5,1
   12444:	008d0b93          	addi	s7,s10,8
   12448:	01474663          	blt	a4,s4,12454 <_vfprintf_r+0x1d68>
   1244c:	00147693          	andi	a3,s0,1
   12450:	1c068663          	beqz	a3,1261c <_vfprintf_r+0x1f30>
   12454:	00100713          	li	a4,1
   12458:	00ed2223          	sw	a4,4(s10)
   1245c:	0fb12623          	sw	s11,236(sp)
   12460:	0ef12423          	sw	a5,232(sp)
   12464:	00700713          	li	a4,7
   12468:	00f75e63          	ble	a5,a4,12484 <_vfprintf_r+0x1d98>
   1246c:	0e410613          	addi	a2,sp,228
   12470:	00090593          	mv	a1,s2
   12474:	00098513          	mv	a0,s3
   12478:	5510a0ef          	jal	ra,1d1c8 <__sprint_r>
   1247c:	20051c63          	bnez	a0,12694 <_vfprintf_r+0x1fa8>
   12480:	10c10b93          	addi	s7,sp,268
   12484:	03812783          	lw	a5,56(sp)
   12488:	02412703          	lw	a4,36(sp)
   1248c:	008b8b93          	addi	s7,s7,8
   12490:	fefbac23          	sw	a5,-8(s7)
   12494:	02412783          	lw	a5,36(sp)
   12498:	fefbae23          	sw	a5,-4(s7)
   1249c:	0ec12783          	lw	a5,236(sp)
   124a0:	00e787b3          	add	a5,a5,a4
   124a4:	0ef12623          	sw	a5,236(sp)
   124a8:	0e812783          	lw	a5,232(sp)
   124ac:	00700713          	li	a4,7
   124b0:	00178793          	addi	a5,a5,1
   124b4:	0ef12423          	sw	a5,232(sp)
   124b8:	00f75e63          	ble	a5,a4,124d4 <_vfprintf_r+0x1de8>
   124bc:	0e410613          	addi	a2,sp,228
   124c0:	00090593          	mv	a1,s2
   124c4:	00098513          	mv	a0,s3
   124c8:	5010a0ef          	jal	ra,1d1c8 <__sprint_r>
   124cc:	1c051463          	bnez	a0,12694 <_vfprintf_r+0x1fa8>
   124d0:	10c10b93          	addi	s7,sp,268
   124d4:	0f012783          	lw	a5,240(sp)
   124d8:	0a010593          	addi	a1,sp,160
   124dc:	0b010513          	addi	a0,sp,176
   124e0:	0af12823          	sw	a5,176(sp)
   124e4:	0f412783          	lw	a5,244(sp)
   124e8:	fffa0a93          	addi	s5,s4,-1
   124ec:	0a012023          	sw	zero,160(sp)
   124f0:	0af12a23          	sw	a5,180(sp)
   124f4:	0f812783          	lw	a5,248(sp)
   124f8:	0a012223          	sw	zero,164(sp)
   124fc:	0a012423          	sw	zero,168(sp)
   12500:	0af12c23          	sw	a5,184(sp)
   12504:	0fc12783          	lw	a5,252(sp)
   12508:	0a012623          	sw	zero,172(sp)
   1250c:	0af12e23          	sw	a5,188(sp)
   12510:	015130ef          	jal	ra,25d24 <__eqtf2>
   12514:	08050663          	beqz	a0,125a0 <_vfprintf_r+0x1eb4>
   12518:	0ec12783          	lw	a5,236(sp)
   1251c:	0e812703          	lw	a4,232(sp)
   12520:	00148493          	addi	s1,s1,1
   12524:	fff78793          	addi	a5,a5,-1
   12528:	014787b3          	add	a5,a5,s4
   1252c:	00170713          	addi	a4,a4,1
   12530:	009ba023          	sw	s1,0(s7)
   12534:	015ba223          	sw	s5,4(s7)
   12538:	0ef12623          	sw	a5,236(sp)
   1253c:	0ee12423          	sw	a4,232(sp)
   12540:	00700793          	li	a5,7
   12544:	008b8b93          	addi	s7,s7,8
   12548:	00e7de63          	ble	a4,a5,12564 <_vfprintf_r+0x1e78>
   1254c:	0e410613          	addi	a2,sp,228
   12550:	00090593          	mv	a1,s2
   12554:	00098513          	mv	a0,s3
   12558:	4710a0ef          	jal	ra,1d1c8 <__sprint_r>
   1255c:	12051c63          	bnez	a0,12694 <_vfprintf_r+0x1fa8>
   12560:	10c10b93          	addi	s7,sp,268
   12564:	0d410793          	addi	a5,sp,212
   12568:	00fba023          	sw	a5,0(s7)
   1256c:	04012783          	lw	a5,64(sp)
   12570:	04012703          	lw	a4,64(sp)
   12574:	008b8d13          	addi	s10,s7,8
   12578:	00fba223          	sw	a5,4(s7)
   1257c:	0ec12783          	lw	a5,236(sp)
   12580:	00e787b3          	add	a5,a5,a4
   12584:	0ef12623          	sw	a5,236(sp)
   12588:	0e812783          	lw	a5,232(sp)
   1258c:	00700713          	li	a4,7
   12590:	00178793          	addi	a5,a5,1
   12594:	0ef12423          	sw	a5,232(sp)
   12598:	a2f758e3          	ble	a5,a4,11fc8 <_vfprintf_r+0x18dc>
   1259c:	869fe06f          	j	10e04 <_vfprintf_r+0x718>
   125a0:	fd5052e3          	blez	s5,12564 <_vfprintf_r+0x1e78>
   125a4:	01000493          	li	s1,16
   125a8:	00700c13          	li	s8,7
   125ac:	01812603          	lw	a2,24(sp)
   125b0:	0e812703          	lw	a4,232(sp)
   125b4:	0ec12783          	lw	a5,236(sp)
   125b8:	00cba023          	sw	a2,0(s7)
   125bc:	00170713          	addi	a4,a4,1
   125c0:	008b8693          	addi	a3,s7,8
   125c4:	0354c063          	blt	s1,s5,125e4 <_vfprintf_r+0x1ef8>
   125c8:	00fa87b3          	add	a5,s5,a5
   125cc:	015ba223          	sw	s5,4(s7)
   125d0:	0ef12623          	sw	a5,236(sp)
   125d4:	0ee12423          	sw	a4,232(sp)
   125d8:	00700793          	li	a5,7
   125dc:	00068b93          	mv	s7,a3
   125e0:	f69ff06f          	j	12548 <_vfprintf_r+0x1e5c>
   125e4:	01078793          	addi	a5,a5,16
   125e8:	009ba223          	sw	s1,4(s7)
   125ec:	0ef12623          	sw	a5,236(sp)
   125f0:	0ee12423          	sw	a4,232(sp)
   125f4:	00ec5e63          	ble	a4,s8,12610 <_vfprintf_r+0x1f24>
   125f8:	0e410613          	addi	a2,sp,228
   125fc:	00090593          	mv	a1,s2
   12600:	00098513          	mv	a0,s3
   12604:	3c50a0ef          	jal	ra,1d1c8 <__sprint_r>
   12608:	08051663          	bnez	a0,12694 <_vfprintf_r+0x1fa8>
   1260c:	10c10693          	addi	a3,sp,268
   12610:	ff0a8a93          	addi	s5,s5,-16
   12614:	00068b93          	mv	s7,a3
   12618:	f95ff06f          	j	125ac <_vfprintf_r+0x1ec0>
   1261c:	00ed2223          	sw	a4,4(s10)
   12620:	0fb12623          	sw	s11,236(sp)
   12624:	0ef12423          	sw	a5,232(sp)
   12628:	00700713          	li	a4,7
   1262c:	f2f75ce3          	ble	a5,a4,12564 <_vfprintf_r+0x1e78>
   12630:	f1dff06f          	j	1254c <_vfprintf_r+0x1e60>
   12634:	02c12783          	lw	a5,44(sp)
   12638:	03012703          	lw	a4,48(sp)
   1263c:	40e78433          	sub	s0,a5,a4
   12640:	988058e3          	blez	s0,11fd0 <_vfprintf_r+0x18e4>
   12644:	0002a4b7          	lui	s1,0x2a
   12648:	01000a93          	li	s5,16
   1264c:	8a448493          	addi	s1,s1,-1884 # 298a4 <blanks.4376>
   12650:	00700b93          	li	s7,7
   12654:	0e812783          	lw	a5,232(sp)
   12658:	009d2023          	sw	s1,0(s10)
   1265c:	0ec12703          	lw	a4,236(sp)
   12660:	00178793          	addi	a5,a5,1
   12664:	048ac663          	blt	s5,s0,126b0 <_vfprintf_r+0x1fc4>
   12668:	008d2223          	sw	s0,4(s10)
   1266c:	00e40433          	add	s0,s0,a4
   12670:	0e812623          	sw	s0,236(sp)
   12674:	0ef12423          	sw	a5,232(sp)
   12678:	00700713          	li	a4,7
   1267c:	94f75ae3          	ble	a5,a4,11fd0 <_vfprintf_r+0x18e4>
   12680:	0e410613          	addi	a2,sp,228
   12684:	00090593          	mv	a1,s2
   12688:	00098513          	mv	a0,s3
   1268c:	33d0a0ef          	jal	ra,1d1c8 <__sprint_r>
   12690:	940500e3          	beqz	a0,11fd0 <_vfprintf_r+0x18e4>
   12694:	01012783          	lw	a5,16(sp)
   12698:	00079463          	bnez	a5,126a0 <_vfprintf_r+0x1fb4>
   1269c:	9d1fe06f          	j	1106c <_vfprintf_r+0x980>
   126a0:	00078593          	mv	a1,a5
   126a4:	00098513          	mv	a0,s3
   126a8:	7cd010ef          	jal	ra,14674 <_free_r>
   126ac:	9c1fe06f          	j	1106c <_vfprintf_r+0x980>
   126b0:	01070713          	addi	a4,a4,16
   126b4:	015d2223          	sw	s5,4(s10)
   126b8:	0ee12623          	sw	a4,236(sp)
   126bc:	0ef12423          	sw	a5,232(sp)
   126c0:	008d0d13          	addi	s10,s10,8
   126c4:	00fbde63          	ble	a5,s7,126e0 <_vfprintf_r+0x1ff4>
   126c8:	0e410613          	addi	a2,sp,228
   126cc:	00090593          	mv	a1,s2
   126d0:	00098513          	mv	a0,s3
   126d4:	2f50a0ef          	jal	ra,1d1c8 <__sprint_r>
   126d8:	fa051ee3          	bnez	a0,12694 <_vfprintf_r+0x1fa8>
   126dc:	10c10d13          	addi	s10,sp,268
   126e0:	ff040413          	addi	s0,s0,-16
   126e4:	f71ff06f          	j	12654 <_vfprintf_r+0x1f68>
   126e8:	01012583          	lw	a1,16(sp)
   126ec:	00098513          	mv	a0,s3
   126f0:	785010ef          	jal	ra,14674 <_free_r>
   126f4:	921ff06f          	j	12014 <_vfprintf_r+0x1928>
   126f8:	0ec12783          	lw	a5,236(sp)
   126fc:	00079463          	bnez	a5,12704 <_vfprintf_r+0x2018>
   12700:	96dfe06f          	j	1106c <_vfprintf_r+0x980>
   12704:	0e410613          	addi	a2,sp,228
   12708:	00090593          	mv	a1,s2
   1270c:	00098513          	mv	a0,s3
   12710:	2b90a0ef          	jal	ra,1d1c8 <__sprint_r>
   12714:	959fe06f          	j	1106c <_vfprintf_r+0x980>

00012718 <vfprintf>:
   12718:	00060693          	mv	a3,a2
   1271c:	00058613          	mv	a2,a1
   12720:	00050593          	mv	a1,a0
   12724:	8681a503          	lw	a0,-1944(gp) # 2ba20 <_impure_ptr>
   12728:	fc5fd06f          	j	106ec <_vfprintf_r>

0001272c <__sbprintf>:
   1272c:	00c5d783          	lhu	a5,12(a1)
   12730:	b8010113          	addi	sp,sp,-1152
   12734:	46812c23          	sw	s0,1144(sp)
   12738:	ffd7f793          	andi	a5,a5,-3
   1273c:	00f11a23          	sh	a5,20(sp)
   12740:	0645a783          	lw	a5,100(a1)
   12744:	00058413          	mv	s0,a1
   12748:	46912a23          	sw	s1,1140(sp)
   1274c:	06f12623          	sw	a5,108(sp)
   12750:	00e5d783          	lhu	a5,14(a1)
   12754:	47212823          	sw	s2,1136(sp)
   12758:	46112e23          	sw	ra,1148(sp)
   1275c:	00f11b23          	sh	a5,22(sp)
   12760:	01c5a783          	lw	a5,28(a1)
   12764:	00050913          	mv	s2,a0
   12768:	02012023          	sw	zero,32(sp)
   1276c:	02f12223          	sw	a5,36(sp)
   12770:	0245a783          	lw	a5,36(a1)
   12774:	00810593          	addi	a1,sp,8
   12778:	02f12623          	sw	a5,44(sp)
   1277c:	07010793          	addi	a5,sp,112
   12780:	00f12423          	sw	a5,8(sp)
   12784:	00f12c23          	sw	a5,24(sp)
   12788:	40000793          	li	a5,1024
   1278c:	00f12823          	sw	a5,16(sp)
   12790:	00f12e23          	sw	a5,28(sp)
   12794:	f59fd0ef          	jal	ra,106ec <_vfprintf_r>
   12798:	00050493          	mv	s1,a0
   1279c:	00054c63          	bltz	a0,127b4 <__sbprintf+0x88>
   127a0:	00810593          	addi	a1,sp,8
   127a4:	00090513          	mv	a0,s2
   127a8:	121010ef          	jal	ra,140c8 <_fflush_r>
   127ac:	00050463          	beqz	a0,127b4 <__sbprintf+0x88>
   127b0:	fff00493          	li	s1,-1
   127b4:	01415783          	lhu	a5,20(sp)
   127b8:	0407f793          	andi	a5,a5,64
   127bc:	00078863          	beqz	a5,127cc <__sbprintf+0xa0>
   127c0:	00c45783          	lhu	a5,12(s0)
   127c4:	0407e793          	ori	a5,a5,64
   127c8:	00f41623          	sh	a5,12(s0)
   127cc:	47c12083          	lw	ra,1148(sp)
   127d0:	47812403          	lw	s0,1144(sp)
   127d4:	00048513          	mv	a0,s1
   127d8:	47012903          	lw	s2,1136(sp)
   127dc:	47412483          	lw	s1,1140(sp)
   127e0:	48010113          	addi	sp,sp,1152
   127e4:	00008067          	ret
   127e8:	0000                	unimp
	...

000127ec <__svfscanf_r>:
   127ec:	00c59703          	lh	a4,12(a1)
   127f0:	af010113          	addi	sp,sp,-1296
   127f4:	fffff337          	lui	t1,0xfffff
   127f8:	4f312e23          	sw	s3,1276(sp)
   127fc:	4f512a23          	sw	s5,1268(sp)
   12800:	4f712623          	sw	s7,1260(sp)
   12804:	50112623          	sw	ra,1292(sp)
   12808:	50812423          	sw	s0,1288(sp)
   1280c:	50912223          	sw	s1,1284(sp)
   12810:	51212023          	sw	s2,1280(sp)
   12814:	4f412c23          	sw	s4,1272(sp)
   12818:	4f612823          	sw	s6,1264(sp)
   1281c:	4f812423          	sw	s8,1256(sp)
   12820:	4f912223          	sw	s9,1252(sp)
   12824:	4fa12023          	sw	s10,1248(sp)
   12828:	4db12e23          	sw	s11,1244(sp)
   1282c:	00610133          	add	sp,sp,t1
   12830:	00c12223          	sw	a2,4(sp)
   12834:	01271793          	slli	a5,a4,0x12
   12838:	00050993          	mv	s3,a0
   1283c:	00058b93          	mv	s7,a1
   12840:	00068a93          	mv	s5,a3
   12844:	0207c263          	bltz	a5,12868 <__svfscanf_r+0x7c>
   12848:	00002637          	lui	a2,0x2
   1284c:	0645a683          	lw	a3,100(a1)
   12850:	00c76733          	or	a4,a4,a2
   12854:	00e59623          	sh	a4,12(a1)
   12858:	ffffe737          	lui	a4,0xffffe
   1285c:	fff70713          	addi	a4,a4,-1 # ffffdfff <__global_pointer$+0xfffd1e47>
   12860:	00e6f733          	and	a4,a3,a4
   12864:	06e5a223          	sw	a4,100(a1)
   12868:	000017b7          	lui	a5,0x1
   1286c:	04010713          	addi	a4,sp,64
   12870:	49078793          	addi	a5,a5,1168 # 1490 <_start-0xebe4>
   12874:	00e787b3          	add	a5,a5,a4
   12878:	fffff737          	lui	a4,0xfffff
   1287c:	c9070713          	addi	a4,a4,-880 # ffffec90 <__global_pointer$+0xfffd2ad8>
   12880:	00e787b3          	add	a5,a5,a4
   12884:	0002a737          	lui	a4,0x2a
   12888:	00f12423          	sw	a5,8(sp)
   1288c:	93c70793          	addi	a5,a4,-1732 # 2993c <basefix.4425>
   12890:	00012023          	sw	zero,0(sp)
   12894:	00000a13          	li	s4,0
   12898:	00000913          	li	s2,0
   1289c:	00000b13          	li	s6,0
   128a0:	00f12a23          	sw	a5,20(sp)
   128a4:	00412783          	lw	a5,4(sp)
   128a8:	0007c703          	lbu	a4,0(a5)
   128ac:	00178793          	addi	a5,a5,1
   128b0:	00f12223          	sw	a5,4(sp)
   128b4:	04e12a23          	sw	a4,84(sp)
   128b8:	22070a63          	beqz	a4,12aec <__svfscanf_r+0x300>
   128bc:	304040ef          	jal	ra,16bc0 <__locale_ctype_ptr>
   128c0:	05412703          	lw	a4,84(sp)
   128c4:	00e50533          	add	a0,a0,a4
   128c8:	00154c83          	lbu	s9,1(a0)
   128cc:	008cfc93          	andi	s9,s9,8
   128d0:	040c8c63          	beqz	s9,12928 <__svfscanf_r+0x13c>
   128d4:	004ba703          	lw	a4,4(s7)
   128d8:	02e05e63          	blez	a4,12914 <__svfscanf_r+0x128>
   128dc:	2e4040ef          	jal	ra,16bc0 <__locale_ctype_ptr>
   128e0:	000ba703          	lw	a4,0(s7)
   128e4:	00074683          	lbu	a3,0(a4)
   128e8:	00d50533          	add	a0,a0,a3
   128ec:	00154683          	lbu	a3,1(a0)
   128f0:	0086f693          	andi	a3,a3,8
   128f4:	fa0688e3          	beqz	a3,128a4 <__svfscanf_r+0xb8>
   128f8:	004ba683          	lw	a3,4(s7)
   128fc:	00170713          	addi	a4,a4,1
   12900:	00190913          	addi	s2,s2,1
   12904:	fff68693          	addi	a3,a3,-1
   12908:	00dba223          	sw	a3,4(s7)
   1290c:	00eba023          	sw	a4,0(s7)
   12910:	fc5ff06f          	j	128d4 <__svfscanf_r+0xe8>
   12914:	000b8593          	mv	a1,s7
   12918:	00098513          	mv	a0,s3
   1291c:	455050ef          	jal	ra,18570 <__srefill_r>
   12920:	fa050ee3          	beqz	a0,128dc <__svfscanf_r+0xf0>
   12924:	f81ff06f          	j	128a4 <__svfscanf_r+0xb8>
   12928:	02500693          	li	a3,37
   1292c:	1ad71263          	bne	a4,a3,12ad0 <__svfscanf_r+0x2e4>
   12930:	00412583          	lw	a1,4(sp)
   12934:	00000413          	li	s0,0
   12938:	00000493          	li	s1,0
   1293c:	06100d93          	li	s11,97
   12940:	06c00d13          	li	s10,108
   12944:	07300713          	li	a4,115
   12948:	07500693          	li	a3,117
   1294c:	06900613          	li	a2,105
   12950:	06a00393          	li	t2,106
   12954:	04400813          	li	a6,68
   12958:	04f00893          	li	a7,79
   1295c:	04700293          	li	t0,71
   12960:	04c00f93          	li	t6,76
   12964:	03900313          	li	t1,57
   12968:	03000e13          	li	t3,48
   1296c:	02500e93          	li	t4,37
   12970:	02a00f13          	li	t5,42
   12974:	00412783          	lw	a5,4(sp)
   12978:	0005cc03          	lbu	s8,0(a1)
   1297c:	00178793          	addi	a5,a5,1
   12980:	00f12223          	sw	a5,4(sp)
   12984:	2fbc0c63          	beq	s8,s11,12c7c <__svfscanf_r+0x490>
   12988:	098dee63          	bltu	s11,s8,12a24 <__svfscanf_r+0x238>
   1298c:	2b0c0463          	beq	s8,a6,12c34 <__svfscanf_r+0x448>
   12990:	05886c63          	bltu	a6,s8,129e8 <__svfscanf_r+0x1fc>
   12994:	01836e63          	bltu	t1,s8,129b0 <__svfscanf_r+0x1c4>
   12998:	23cc7263          	bleu	t3,s8,12bbc <__svfscanf_r+0x3d0>
   1299c:	13dc0a63          	beq	s8,t4,12ad0 <__svfscanf_r+0x2e4>
   129a0:	1dec0a63          	beq	s8,t5,12b74 <__svfscanf_r+0x388>
   129a4:	000c1e63          	bnez	s8,129c0 <__svfscanf_r+0x1d4>
   129a8:	fff00b13          	li	s6,-1
   129ac:	1400006f          	j	12aec <__svfscanf_r+0x300>
   129b0:	04100713          	li	a4,65
   129b4:	2cec0463          	beq	s8,a4,12c7c <__svfscanf_r+0x490>
   129b8:	04300713          	li	a4,67
   129bc:	42ec0e63          	beq	s8,a4,12df8 <__svfscanf_r+0x60c>
   129c0:	200040ef          	jal	ra,16bc0 <__locale_ctype_ptr>
   129c4:	01850533          	add	a0,a0,s8
   129c8:	00154703          	lbu	a4,1(a0)
   129cc:	00100613          	li	a2,1
   129d0:	0001b6b7          	lui	a3,0x1b
   129d4:	00377713          	andi	a4,a4,3
   129d8:	00c71463          	bne	a4,a2,129e0 <__svfscanf_r+0x1f4>
   129dc:	00146413          	ori	s0,s0,1
   129e0:	8a468793          	addi	a5,a3,-1884 # 1a8a4 <_strtol_r>
   129e4:	0700006f          	j	12a54 <__svfscanf_r+0x268>
   129e8:	251c0a63          	beq	s8,a7,12c3c <__svfscanf_r+0x450>
   129ec:	0188ea63          	bltu	a7,s8,12a00 <__svfscanf_r+0x214>
   129f0:	2982f663          	bleu	s8,t0,12c7c <__svfscanf_r+0x490>
   129f4:	fdfc16e3          	bne	s8,t6,129c0 <__svfscanf_r+0x1d4>
   129f8:	00246413          	ori	s0,s0,2
   129fc:	0cc0006f          	j	12ac8 <__svfscanf_r+0x2dc>
   12a00:	05800713          	li	a4,88
   12a04:	26ec0063          	beq	s8,a4,12c64 <__svfscanf_r+0x478>
   12a08:	05b00713          	li	a4,91
   12a0c:	3aec0c63          	beq	s8,a4,12dc4 <__svfscanf_r+0x5d8>
   12a10:	05300713          	li	a4,83
   12a14:	faec16e3          	bne	s8,a4,129c0 <__svfscanf_r+0x1d4>
   12a18:	00146413          	ori	s0,s0,1
   12a1c:	00200c13          	li	s8,2
   12a20:	2600006f          	j	12c80 <__svfscanf_r+0x494>
   12a24:	15ac0c63          	beq	s8,s10,12b7c <__svfscanf_r+0x390>
   12a28:	058d6463          	bltu	s10,s8,12a70 <__svfscanf_r+0x284>
   12a2c:	06700793          	li	a5,103
   12a30:	0387e863          	bltu	a5,s8,12a60 <__svfscanf_r+0x274>
   12a34:	06500713          	li	a4,101
   12a38:	24ec7263          	bleu	a4,s8,12c7c <__svfscanf_r+0x490>
   12a3c:	06300713          	li	a4,99
   12a40:	3aec0e63          	beq	s8,a4,12dfc <__svfscanf_r+0x610>
   12a44:	06400713          	li	a4,100
   12a48:	f6ec1ce3          	bne	s8,a4,129c0 <__svfscanf_r+0x1d4>
   12a4c:	0001b737          	lui	a4,0x1b
   12a50:	8a470793          	addi	a5,a4,-1884 # 1a8a4 <_strtol_r>
   12a54:	00f12023          	sw	a5,0(sp)
   12a58:	00a00a13          	li	s4,10
   12a5c:	1f40006f          	j	12c50 <__svfscanf_r+0x464>
   12a60:	3ecc0463          	beq	s8,a2,12e48 <__svfscanf_r+0x65c>
   12a64:	12cc6a63          	bltu	s8,a2,12b98 <__svfscanf_r+0x3ac>
   12a68:	f87c08e3          	beq	s8,t2,129f8 <__svfscanf_r+0x20c>
   12a6c:	f55ff06f          	j	129c0 <__svfscanf_r+0x1d4>
   12a70:	faec06e3          	beq	s8,a4,12a1c <__svfscanf_r+0x230>
   12a74:	03876e63          	bltu	a4,s8,12ab0 <__svfscanf_r+0x2c4>
   12a78:	06f00713          	li	a4,111
   12a7c:	1cec0263          	beq	s8,a4,12c40 <__svfscanf_r+0x454>
   12a80:	07000713          	li	a4,112
   12a84:	38ec0263          	beq	s8,a4,12e08 <__svfscanf_r+0x61c>
   12a88:	06e00713          	li	a4,110
   12a8c:	f2ec1ae3          	bne	s8,a4,129c0 <__svfscanf_r+0x1d4>
   12a90:	01047713          	andi	a4,s0,16
   12a94:	e00718e3          	bnez	a4,128a4 <__svfscanf_r+0xb8>
   12a98:	00847693          	andi	a3,s0,8
   12a9c:	000aa703          	lw	a4,0(s5)
   12aa0:	004a8a93          	addi	s5,s5,4
   12aa4:	36068663          	beqz	a3,12e10 <__svfscanf_r+0x624>
   12aa8:	01270023          	sb	s2,0(a4)
   12aac:	df9ff06f          	j	128a4 <__svfscanf_r+0xb8>
   12ab0:	1adc0463          	beq	s8,a3,12c58 <__svfscanf_r+0x46c>
   12ab4:	00dc6a63          	bltu	s8,a3,12ac8 <__svfscanf_r+0x2dc>
   12ab8:	07800793          	li	a5,120
   12abc:	1afc0463          	beq	s8,a5,12c64 <__svfscanf_r+0x478>
   12ac0:	07a00793          	li	a5,122
   12ac4:	eefc1ee3          	bne	s8,a5,129c0 <__svfscanf_r+0x1d4>
   12ac8:	00412583          	lw	a1,4(sp)
   12acc:	ea9ff06f          	j	12974 <__svfscanf_r+0x188>
   12ad0:	004ba703          	lw	a4,4(s7)
   12ad4:	06e05063          	blez	a4,12b34 <__svfscanf_r+0x348>
   12ad8:	000ba703          	lw	a4,0(s7)
   12adc:	00412783          	lw	a5,4(sp)
   12ae0:	00074603          	lbu	a2,0(a4)
   12ae4:	fff7c683          	lbu	a3,-1(a5)
   12ae8:	06d60863          	beq	a2,a3,12b58 <__svfscanf_r+0x36c>
   12aec:	00001337          	lui	t1,0x1
   12af0:	00610133          	add	sp,sp,t1
   12af4:	50c12083          	lw	ra,1292(sp)
   12af8:	000b0513          	mv	a0,s6
   12afc:	50812403          	lw	s0,1288(sp)
   12b00:	50412483          	lw	s1,1284(sp)
   12b04:	50012903          	lw	s2,1280(sp)
   12b08:	4fc12983          	lw	s3,1276(sp)
   12b0c:	4f812a03          	lw	s4,1272(sp)
   12b10:	4f412a83          	lw	s5,1268(sp)
   12b14:	4f012b03          	lw	s6,1264(sp)
   12b18:	4ec12b83          	lw	s7,1260(sp)
   12b1c:	4e812c03          	lw	s8,1256(sp)
   12b20:	4e412c83          	lw	s9,1252(sp)
   12b24:	4e012d03          	lw	s10,1248(sp)
   12b28:	4dc12d83          	lw	s11,1244(sp)
   12b2c:	51010113          	addi	sp,sp,1296
   12b30:	00008067          	ret
   12b34:	000b8593          	mv	a1,s7
   12b38:	00098513          	mv	a0,s3
   12b3c:	235050ef          	jal	ra,18570 <__srefill_r>
   12b40:	f8050ce3          	beqz	a0,12ad8 <__svfscanf_r+0x2ec>
   12b44:	e60b02e3          	beqz	s6,129a8 <__svfscanf_r+0x1bc>
   12b48:	00cbd783          	lhu	a5,12(s7)
   12b4c:	0407f793          	andi	a5,a5,64
   12b50:	f8078ee3          	beqz	a5,12aec <__svfscanf_r+0x300>
   12b54:	e55ff06f          	j	129a8 <__svfscanf_r+0x1bc>
   12b58:	004ba683          	lw	a3,4(s7)
   12b5c:	00170713          	addi	a4,a4,1
   12b60:	00eba023          	sw	a4,0(s7)
   12b64:	fff68693          	addi	a3,a3,-1
   12b68:	00dba223          	sw	a3,4(s7)
   12b6c:	00190913          	addi	s2,s2,1
   12b70:	d35ff06f          	j	128a4 <__svfscanf_r+0xb8>
   12b74:	01046413          	ori	s0,s0,16
   12b78:	f51ff06f          	j	12ac8 <__svfscanf_r+0x2dc>
   12b7c:	0015c503          	lbu	a0,1(a1)
   12b80:	01a51863          	bne	a0,s10,12b90 <__svfscanf_r+0x3a4>
   12b84:	00258793          	addi	a5,a1,2
   12b88:	00f12223          	sw	a5,4(sp)
   12b8c:	e6dff06f          	j	129f8 <__svfscanf_r+0x20c>
   12b90:	00146413          	ori	s0,s0,1
   12b94:	f35ff06f          	j	12ac8 <__svfscanf_r+0x2dc>
   12b98:	0015c503          	lbu	a0,1(a1)
   12b9c:	06800793          	li	a5,104
   12ba0:	00f51a63          	bne	a0,a5,12bb4 <__svfscanf_r+0x3c8>
   12ba4:	00258793          	addi	a5,a1,2
   12ba8:	00f12223          	sw	a5,4(sp)
   12bac:	00846413          	ori	s0,s0,8
   12bb0:	f19ff06f          	j	12ac8 <__svfscanf_r+0x2dc>
   12bb4:	00446413          	ori	s0,s0,4
   12bb8:	f11ff06f          	j	12ac8 <__svfscanf_r+0x2dc>
   12bbc:	00048513          	mv	a0,s1
   12bc0:	00a00593          	li	a1,10
   12bc4:	03e12e23          	sw	t5,60(sp)
   12bc8:	03d12c23          	sw	t4,56(sp)
   12bcc:	03c12a23          	sw	t3,52(sp)
   12bd0:	02612823          	sw	t1,48(sp)
   12bd4:	03f12623          	sw	t6,44(sp)
   12bd8:	02512423          	sw	t0,40(sp)
   12bdc:	03112223          	sw	a7,36(sp)
   12be0:	03012023          	sw	a6,32(sp)
   12be4:	00712e23          	sw	t2,28(sp)
   12be8:	00c12c23          	sw	a2,24(sp)
   12bec:	00d12823          	sw	a3,16(sp)
   12bf0:	00e12623          	sw	a4,12(sp)
   12bf4:	125160ef          	jal	ra,29518 <__mulsi3>
   12bf8:	fd050513          	addi	a0,a0,-48
   12bfc:	00ac04b3          	add	s1,s8,a0
   12c00:	00c12703          	lw	a4,12(sp)
   12c04:	01012683          	lw	a3,16(sp)
   12c08:	01812603          	lw	a2,24(sp)
   12c0c:	01c12383          	lw	t2,28(sp)
   12c10:	02012803          	lw	a6,32(sp)
   12c14:	02412883          	lw	a7,36(sp)
   12c18:	02812283          	lw	t0,40(sp)
   12c1c:	02c12f83          	lw	t6,44(sp)
   12c20:	03012303          	lw	t1,48(sp)
   12c24:	03412e03          	lw	t3,52(sp)
   12c28:	03812e83          	lw	t4,56(sp)
   12c2c:	03c12f03          	lw	t5,60(sp)
   12c30:	e99ff06f          	j	12ac8 <__svfscanf_r+0x2dc>
   12c34:	00146413          	ori	s0,s0,1
   12c38:	e15ff06f          	j	12a4c <__svfscanf_r+0x260>
   12c3c:	00146413          	ori	s0,s0,1
   12c40:	0001b7b7          	lui	a5,0x1b
   12c44:	f2878793          	addi	a5,a5,-216 # 1af28 <_strtoul_r>
   12c48:	00f12023          	sw	a5,0(sp)
   12c4c:	00800a13          	li	s4,8
   12c50:	00300c13          	li	s8,3
   12c54:	02c0006f          	j	12c80 <__svfscanf_r+0x494>
   12c58:	0001b7b7          	lui	a5,0x1b
   12c5c:	f2878793          	addi	a5,a5,-216 # 1af28 <_strtoul_r>
   12c60:	df5ff06f          	j	12a54 <__svfscanf_r+0x268>
   12c64:	20046413          	ori	s0,s0,512
   12c68:	0001b7b7          	lui	a5,0x1b
   12c6c:	f2878793          	addi	a5,a5,-216 # 1af28 <_strtoul_r>
   12c70:	00f12023          	sw	a5,0(sp)
   12c74:	01000a13          	li	s4,16
   12c78:	fd9ff06f          	j	12c50 <__svfscanf_r+0x464>
   12c7c:	00400c13          	li	s8,4
   12c80:	004ba703          	lw	a4,4(s7)
   12c84:	1ce05c63          	blez	a4,12e5c <__svfscanf_r+0x670>
   12c88:	04047713          	andi	a4,s0,64
   12c8c:	02071063          	bnez	a4,12cac <__svfscanf_r+0x4c0>
   12c90:	731030ef          	jal	ra,16bc0 <__locale_ctype_ptr>
   12c94:	000ba703          	lw	a4,0(s7)
   12c98:	00074683          	lbu	a3,0(a4)
   12c9c:	00d50533          	add	a0,a0,a3
   12ca0:	00154683          	lbu	a3,1(a0)
   12ca4:	0086f693          	andi	a3,a3,8
   12ca8:	1c069463          	bnez	a3,12e70 <__svfscanf_r+0x684>
   12cac:	00200713          	li	a4,2
   12cb0:	46ec0e63          	beq	s8,a4,1312c <__svfscanf_r+0x940>
   12cb4:	1f874863          	blt	a4,s8,12ea4 <__svfscanf_r+0x6b8>
   12cb8:	00100713          	li	a4,1
   12cbc:	38ec0463          	beq	s8,a4,13044 <__svfscanf_r+0x858>
   12cc0:	00049463          	bnez	s1,12cc8 <__svfscanf_r+0x4dc>
   12cc4:	00100493          	li	s1,1
   12cc8:	01047c13          	andi	s8,s0,16
   12ccc:	00147413          	andi	s0,s0,1
   12cd0:	2e040663          	beqz	s0,12fbc <__svfscanf_r+0x7d0>
   12cd4:	fffff7b7          	lui	a5,0xfffff
   12cd8:	b8878513          	addi	a0,a5,-1144 # ffffeb88 <__global_pointer$+0xfffd29d0>
   12cdc:	000017b7          	lui	a5,0x1
   12ce0:	04010713          	addi	a4,sp,64
   12ce4:	49078793          	addi	a5,a5,1168 # 1490 <_start-0xebe4>
   12ce8:	00e787b3          	add	a5,a5,a4
   12cec:	00800613          	li	a2,8
   12cf0:	00000593          	li	a1,0
   12cf4:	00a78533          	add	a0,a5,a0
   12cf8:	801fd0ef          	jal	ra,104f8 <memset>
   12cfc:	00000c93          	li	s9,0
   12d00:	000c1663          	bnez	s8,12d0c <__svfscanf_r+0x520>
   12d04:	000aac83          	lw	s9,0(s5)
   12d08:	004a8a93          	addi	s5,s5,4
   12d0c:	000016b7          	lui	a3,0x1
   12d10:	49068793          	addi	a5,a3,1168 # 1490 <_start-0xebe4>
   12d14:	04010613          	addi	a2,sp,64
   12d18:	00c787b3          	add	a5,a5,a2
   12d1c:	fffff637          	lui	a2,0xfffff
   12d20:	00c787b3          	add	a5,a5,a2
   12d24:	00f12623          	sw	a5,12(sp)
   12d28:	49068793          	addi	a5,a3,1168
   12d2c:	04010693          	addi	a3,sp,64
   12d30:	b8860413          	addi	s0,a2,-1144 # ffffeb88 <__global_pointer$+0xfffd29d0>
   12d34:	00d787b3          	add	a5,a5,a3
   12d38:	00000713          	li	a4,0
   12d3c:	00878433          	add	s0,a5,s0
   12d40:	fff00d13          	li	s10,-1
   12d44:	00e12823          	sw	a4,16(sp)
   12d48:	655030ef          	jal	ra,16b9c <__locale_mb_cur_max>
   12d4c:	01012703          	lw	a4,16(sp)
   12d50:	dee50ae3          	beq	a0,a4,12b44 <__svfscanf_r+0x358>
   12d54:	000ba683          	lw	a3,0(s7)
   12d58:	00c12783          	lw	a5,12(sp)
   12d5c:	00170d93          	addi	s11,a4,1
   12d60:	0006c603          	lbu	a2,0(a3)
   12d64:	00e78733          	add	a4,a5,a4
   12d68:	00168693          	addi	a3,a3,1
   12d6c:	c8c70823          	sb	a2,-880(a4)
   12d70:	004ba703          	lw	a4,4(s7)
   12d74:	00812603          	lw	a2,8(sp)
   12d78:	00dba023          	sw	a3,0(s7)
   12d7c:	fff70713          	addi	a4,a4,-1
   12d80:	00eba223          	sw	a4,4(s7)
   12d84:	000d8693          	mv	a3,s11
   12d88:	00040713          	mv	a4,s0
   12d8c:	000c8593          	mv	a1,s9
   12d90:	00098513          	mv	a0,s3
   12d94:	630040ef          	jal	ra,173c4 <_mbrtowc_r>
   12d98:	dba506e3          	beq	a0,s10,12b44 <__svfscanf_r+0x358>
   12d9c:	1e051263          	bnez	a0,12f80 <__svfscanf_r+0x794>
   12da0:	000c1463          	bnez	s8,12da8 <__svfscanf_r+0x5bc>
   12da4:	000ca023          	sw	zero,0(s9)
   12da8:	01b90933          	add	s2,s2,s11
   12dac:	fff48493          	addi	s1,s1,-1
   12db0:	00000d93          	li	s11,0
   12db4:	1c0c1a63          	bnez	s8,12f88 <__svfscanf_r+0x79c>
   12db8:	004c8c93          	addi	s9,s9,4
   12dbc:	000c0d93          	mv	s11,s8
   12dc0:	1c80006f          	j	12f88 <__svfscanf_r+0x79c>
   12dc4:	fffff7b7          	lui	a5,0xfffff
   12dc8:	b9078513          	addi	a0,a5,-1136 # ffffeb90 <__global_pointer$+0xfffd29d8>
   12dcc:	000017b7          	lui	a5,0x1
   12dd0:	04010713          	addi	a4,sp,64
   12dd4:	00412583          	lw	a1,4(sp)
   12dd8:	49078793          	addi	a5,a5,1168 # 1490 <_start-0xebe4>
   12ddc:	00e787b3          	add	a5,a5,a4
   12de0:	00a78533          	add	a0,a5,a0
   12de4:	1a9050ef          	jal	ra,1878c <__sccl>
   12de8:	00a12223          	sw	a0,4(sp)
   12dec:	04046413          	ori	s0,s0,64
   12df0:	00100c13          	li	s8,1
   12df4:	e8dff06f          	j	12c80 <__svfscanf_r+0x494>
   12df8:	00146413          	ori	s0,s0,1
   12dfc:	04046413          	ori	s0,s0,64
   12e00:	00000c13          	li	s8,0
   12e04:	e7dff06f          	j	12c80 <__svfscanf_r+0x494>
   12e08:	22046413          	ori	s0,s0,544
   12e0c:	e5dff06f          	j	12c68 <__svfscanf_r+0x47c>
   12e10:	00447693          	andi	a3,s0,4
   12e14:	00068663          	beqz	a3,12e20 <__svfscanf_r+0x634>
   12e18:	01271023          	sh	s2,0(a4)
   12e1c:	a89ff06f          	j	128a4 <__svfscanf_r+0xb8>
   12e20:	00147693          	andi	a3,s0,1
   12e24:	00068663          	beqz	a3,12e30 <__svfscanf_r+0x644>
   12e28:	01272023          	sw	s2,0(a4)
   12e2c:	a79ff06f          	j	128a4 <__svfscanf_r+0xb8>
   12e30:	00247413          	andi	s0,s0,2
   12e34:	fe040ae3          	beqz	s0,12e28 <__svfscanf_r+0x63c>
   12e38:	41f95693          	srai	a3,s2,0x1f
   12e3c:	01272023          	sw	s2,0(a4)
   12e40:	00d72223          	sw	a3,4(a4)
   12e44:	a61ff06f          	j	128a4 <__svfscanf_r+0xb8>
   12e48:	0001b737          	lui	a4,0x1b
   12e4c:	8a470793          	addi	a5,a4,-1884 # 1a8a4 <_strtol_r>
   12e50:	00f12023          	sw	a5,0(sp)
   12e54:	00000a13          	li	s4,0
   12e58:	df9ff06f          	j	12c50 <__svfscanf_r+0x464>
   12e5c:	000b8593          	mv	a1,s7
   12e60:	00098513          	mv	a0,s3
   12e64:	70c050ef          	jal	ra,18570 <__srefill_r>
   12e68:	e20500e3          	beqz	a0,12c88 <__svfscanf_r+0x49c>
   12e6c:	cd9ff06f          	j	12b44 <__svfscanf_r+0x358>
   12e70:	004ba683          	lw	a3,4(s7)
   12e74:	00190913          	addi	s2,s2,1
   12e78:	fff68693          	addi	a3,a3,-1
   12e7c:	00dba223          	sw	a3,4(s7)
   12e80:	00d05863          	blez	a3,12e90 <__svfscanf_r+0x6a4>
   12e84:	00170713          	addi	a4,a4,1
   12e88:	00eba023          	sw	a4,0(s7)
   12e8c:	e05ff06f          	j	12c90 <__svfscanf_r+0x4a4>
   12e90:	000b8593          	mv	a1,s7
   12e94:	00098513          	mv	a0,s3
   12e98:	6d8050ef          	jal	ra,18570 <__srefill_r>
   12e9c:	de050ae3          	beqz	a0,12c90 <__svfscanf_r+0x4a4>
   12ea0:	ca5ff06f          	j	12b44 <__svfscanf_r+0x358>
   12ea4:	00300713          	li	a4,3
   12ea8:	4eec0863          	beq	s8,a4,13398 <__svfscanf_r+0xbac>
   12eac:	00400713          	li	a4,4
   12eb0:	e0ec18e3          	bne	s8,a4,12cc0 <__svfscanf_r+0x4d4>
   12eb4:	00098513          	mv	a0,s3
   12eb8:	435030ef          	jal	ra,16aec <_localeconv_r>
   12ebc:	00052783          	lw	a5,0(a0)
   12ec0:	000016b7          	lui	a3,0x1
   12ec4:	fff48713          	addi	a4,s1,-1
   12ec8:	00f12c23          	sw	a5,24(sp)
   12ecc:	36c68613          	addi	a2,a3,876 # 136c <_start-0xed08>
   12ed0:	00000893          	li	a7,0
   12ed4:	00e67a63          	bleu	a4,a2,12ee8 <__svfscanf_r+0x6fc>
   12ed8:	fffff7b7          	lui	a5,0xfffff
   12edc:	c9378893          	addi	a7,a5,-877 # ffffec93 <__global_pointer$+0xfffd2adb>
   12ee0:	011488b3          	add	a7,s1,a7
   12ee4:	36d68493          	addi	s1,a3,877
   12ee8:	000017b7          	lui	a5,0x1
   12eec:	04010713          	addi	a4,sp,64
   12ef0:	49078793          	addi	a5,a5,1168 # 1490 <_start-0xebe4>
   12ef4:	00e787b3          	add	a5,a5,a4
   12ef8:	fffff737          	lui	a4,0xfffff
   12efc:	c9070713          	addi	a4,a4,-880 # ffffec90 <__global_pointer$+0xfffd2ad8>
   12f00:	78046413          	ori	s0,s0,1920
   12f04:	00000613          	li	a2,0
   12f08:	00000d93          	li	s11,0
   12f0c:	00012823          	sw	zero,16(sp)
   12f10:	00000c13          	li	s8,0
   12f14:	00012623          	sw	zero,12(sp)
   12f18:	00e78d33          	add	s10,a5,a4
   12f1c:	04e00313          	li	t1,78
   12f20:	00100e13          	li	t3,1
   12f24:	00400393          	li	t2,4
   12f28:	00200e93          	li	t4,2
   12f2c:	70000f13          	li	t5,1792
   12f30:	40000293          	li	t0,1024
   12f34:	06600f93          	li	t6,102
   12f38:	000ba583          	lw	a1,0(s7)
   12f3c:	0005c683          	lbu	a3,0(a1)
   12f40:	04668ae3          	beq	a3,t1,13794 <__svfscanf_r+0xfa8>
   12f44:	74d36463          	bltu	t1,a3,1368c <__svfscanf_r+0xea0>
   12f48:	03900513          	li	a0,57
   12f4c:	6ed56063          	bltu	a0,a3,1362c <__svfscanf_r+0xe40>
   12f50:	03100513          	li	a0,49
   12f54:	02a6f4e3          	bleu	a0,a3,1377c <__svfscanf_r+0xf90>
   12f58:	02d00513          	li	a0,45
   12f5c:	00a68a63          	beq	a3,a0,12f70 <__svfscanf_r+0x784>
   12f60:	03000513          	li	a0,48
   12f64:	7ca68a63          	beq	a3,a0,13738 <__svfscanf_r+0xf4c>
   12f68:	02b00513          	li	a0,43
   12f6c:	6ca69a63          	bne	a3,a0,13640 <__svfscanf_r+0xe54>
   12f70:	08047513          	andi	a0,s0,128
   12f74:	04050ce3          	beqz	a0,137cc <__svfscanf_r+0xfe0>
   12f78:	f7f47413          	andi	s0,s0,-129
   12f7c:	00d0006f          	j	13788 <__svfscanf_r+0xf9c>
   12f80:	ffe00713          	li	a4,-2
   12f84:	e2e512e3          	bne	a0,a4,12da8 <__svfscanf_r+0x5bc>
   12f88:	004ba703          	lw	a4,4(s7)
   12f8c:	02e04263          	bgtz	a4,12fb0 <__svfscanf_r+0x7c4>
   12f90:	000b8593          	mv	a1,s7
   12f94:	00098513          	mv	a0,s3
   12f98:	5d8050ef          	jal	ra,18570 <__srefill_r>
   12f9c:	00050a63          	beqz	a0,12fb0 <__svfscanf_r+0x7c4>
   12fa0:	ba0d92e3          	bnez	s11,12b44 <__svfscanf_r+0x358>
   12fa4:	900c10e3          	bnez	s8,128a4 <__svfscanf_r+0xb8>
   12fa8:	001b0b13          	addi	s6,s6,1
   12fac:	8f9ff06f          	j	128a4 <__svfscanf_r+0xb8>
   12fb0:	fe048ae3          	beqz	s1,12fa4 <__svfscanf_r+0x7b8>
   12fb4:	000d8713          	mv	a4,s11
   12fb8:	d8dff06f          	j	12d44 <__svfscanf_r+0x558>
   12fbc:	040c0c63          	beqz	s8,13014 <__svfscanf_r+0x828>
   12fc0:	00000413          	li	s0,0
   12fc4:	004ba703          	lw	a4,4(s7)
   12fc8:	000ba503          	lw	a0,0(s7)
   12fcc:	02975863          	ble	s1,a4,12ffc <__svfscanf_r+0x810>
   12fd0:	00e40433          	add	s0,s0,a4
   12fd4:	40e484b3          	sub	s1,s1,a4
   12fd8:	00e50733          	add	a4,a0,a4
   12fdc:	00eba023          	sw	a4,0(s7)
   12fe0:	000b8593          	mv	a1,s7
   12fe4:	00098513          	mv	a0,s3
   12fe8:	588050ef          	jal	ra,18570 <__srefill_r>
   12fec:	fc050ce3          	beqz	a0,12fc4 <__svfscanf_r+0x7d8>
   12ff0:	b4040ae3          	beqz	s0,12b44 <__svfscanf_r+0x358>
   12ff4:	00890933          	add	s2,s2,s0
   12ff8:	8adff06f          	j	128a4 <__svfscanf_r+0xb8>
   12ffc:	40970733          	sub	a4,a4,s1
   13000:	00950533          	add	a0,a0,s1
   13004:	00940433          	add	s0,s0,s1
   13008:	00eba223          	sw	a4,4(s7)
   1300c:	00aba023          	sw	a0,0(s7)
   13010:	fe5ff06f          	j	12ff4 <__svfscanf_r+0x808>
   13014:	000aa583          	lw	a1,0(s5)
   13018:	000b8713          	mv	a4,s7
   1301c:	00048693          	mv	a3,s1
   13020:	00100613          	li	a2,1
   13024:	00098513          	mv	a0,s3
   13028:	004a8413          	addi	s0,s5,4
   1302c:	3d8010ef          	jal	ra,14404 <_fread_r>
   13030:	b0050ae3          	beqz	a0,12b44 <__svfscanf_r+0x358>
   13034:	00a90933          	add	s2,s2,a0
   13038:	001b0b13          	addi	s6,s6,1
   1303c:	00040a93          	mv	s5,s0
   13040:	865ff06f          	j	128a4 <__svfscanf_r+0xb8>
   13044:	00049463          	bnez	s1,1304c <__svfscanf_r+0x860>
   13048:	fff00493          	li	s1,-1
   1304c:	01047413          	andi	s0,s0,16
   13050:	0c041a63          	bnez	s0,13124 <__svfscanf_r+0x938>
   13054:	000aa403          	lw	s0,0(s5)
   13058:	004a8c13          	addi	s8,s5,4
   1305c:	009404b3          	add	s1,s0,s1
   13060:	00040a93          	mv	s5,s0
   13064:	000ba683          	lw	a3,0(s7)
   13068:	4d010793          	addi	a5,sp,1232
   1306c:	0006c703          	lbu	a4,0(a3)
   13070:	00e78733          	add	a4,a5,a4
   13074:	b9074703          	lbu	a4,-1136(a4)
   13078:	04070263          	beqz	a4,130bc <__svfscanf_r+0x8d0>
   1307c:	004ba703          	lw	a4,4(s7)
   13080:	001a8a93          	addi	s5,s5,1
   13084:	fff70713          	addi	a4,a4,-1
   13088:	00eba223          	sw	a4,4(s7)
   1308c:	00168713          	addi	a4,a3,1
   13090:	00eba023          	sw	a4,0(s7)
   13094:	0006c703          	lbu	a4,0(a3)
   13098:	feea8fa3          	sb	a4,-1(s5)
   1309c:	029a8063          	beq	s5,s1,130bc <__svfscanf_r+0x8d0>
   130a0:	004ba703          	lw	a4,4(s7)
   130a4:	fce040e3          	bgtz	a4,13064 <__svfscanf_r+0x878>
   130a8:	000b8593          	mv	a1,s7
   130ac:	00098513          	mv	a0,s3
   130b0:	4c0050ef          	jal	ra,18570 <__srefill_r>
   130b4:	fa0508e3          	beqz	a0,13064 <__svfscanf_r+0x878>
   130b8:	a95406e3          	beq	s0,s5,12b44 <__svfscanf_r+0x358>
   130bc:	408a8433          	sub	s0,s5,s0
   130c0:	a20406e3          	beqz	s0,12aec <__svfscanf_r+0x300>
   130c4:	000a8023          	sb	zero,0(s5)
   130c8:	001b0b13          	addi	s6,s6,1
   130cc:	000c0a93          	mv	s5,s8
   130d0:	f25ff06f          	j	12ff4 <__svfscanf_r+0x808>
   130d4:	004ba683          	lw	a3,4(s7)
   130d8:	00170713          	addi	a4,a4,1
   130dc:	00140413          	addi	s0,s0,1
   130e0:	fff68693          	addi	a3,a3,-1
   130e4:	00dba223          	sw	a3,4(s7)
   130e8:	00eba023          	sw	a4,0(s7)
   130ec:	f08484e3          	beq	s1,s0,12ff4 <__svfscanf_r+0x808>
   130f0:	00d04a63          	bgtz	a3,13104 <__svfscanf_r+0x918>
   130f4:	000b8593          	mv	a1,s7
   130f8:	00098513          	mv	a0,s3
   130fc:	474050ef          	jal	ra,18570 <__srefill_r>
   13100:	ee051ae3          	bnez	a0,12ff4 <__svfscanf_r+0x808>
   13104:	000ba703          	lw	a4,0(s7)
   13108:	4d010793          	addi	a5,sp,1232
   1310c:	00074683          	lbu	a3,0(a4)
   13110:	00d786b3          	add	a3,a5,a3
   13114:	b906c683          	lbu	a3,-1136(a3)
   13118:	fa069ee3          	bnez	a3,130d4 <__svfscanf_r+0x8e8>
   1311c:	ec041ce3          	bnez	s0,12ff4 <__svfscanf_r+0x808>
   13120:	9cdff06f          	j	12aec <__svfscanf_r+0x300>
   13124:	00000413          	li	s0,0
   13128:	fddff06f          	j	13104 <__svfscanf_r+0x918>
   1312c:	00049463          	bnez	s1,13134 <__svfscanf_r+0x948>
   13130:	fff00493          	li	s1,-1
   13134:	00147c13          	andi	s8,s0,1
   13138:	01047413          	andi	s0,s0,16
   1313c:	180c0663          	beqz	s8,132c8 <__svfscanf_r+0xadc>
   13140:	fffff7b7          	lui	a5,0xfffff
   13144:	b8878513          	addi	a0,a5,-1144 # ffffeb88 <__global_pointer$+0xfffd29d0>
   13148:	000017b7          	lui	a5,0x1
   1314c:	49078793          	addi	a5,a5,1168 # 1490 <_start-0xebe4>
   13150:	04010713          	addi	a4,sp,64
   13154:	00e787b3          	add	a5,a5,a4
   13158:	00800613          	li	a2,8
   1315c:	00000593          	li	a1,0
   13160:	00a78533          	add	a0,a5,a0
   13164:	b94fd0ef          	jal	ra,104f8 <memset>
   13168:	0c041e63          	bnez	s0,13244 <__svfscanf_r+0xa58>
   1316c:	000aac03          	lw	s8,0(s5)
   13170:	004a8a93          	addi	s5,s5,4
   13174:	00001737          	lui	a4,0x1
   13178:	49070793          	addi	a5,a4,1168 # 1490 <_start-0xebe4>
   1317c:	04010693          	addi	a3,sp,64
   13180:	00d787b3          	add	a5,a5,a3
   13184:	fffff6b7          	lui	a3,0xfffff
   13188:	00d787b3          	add	a5,a5,a3
   1318c:	00f12623          	sw	a5,12(sp)
   13190:	49070793          	addi	a5,a4,1168
   13194:	04010713          	addi	a4,sp,64
   13198:	b8868c93          	addi	s9,a3,-1144 # ffffeb88 <__global_pointer$+0xfffd29d0>
   1319c:	00e787b3          	add	a5,a5,a4
   131a0:	00000d13          	li	s10,0
   131a4:	01978cb3          	add	s9,a5,s9
   131a8:	219030ef          	jal	ra,16bc0 <__locale_ctype_ptr>
   131ac:	000ba683          	lw	a3,0(s7)
   131b0:	0006c683          	lbu	a3,0(a3)
   131b4:	00d50533          	add	a0,a0,a3
   131b8:	00154683          	lbu	a3,1(a0)
   131bc:	0086f693          	andi	a3,a3,8
   131c0:	06069c63          	bnez	a3,13238 <__svfscanf_r+0xa4c>
   131c4:	06048a63          	beqz	s1,13238 <__svfscanf_r+0xa4c>
   131c8:	1d5030ef          	jal	ra,16b9c <__locale_mb_cur_max>
   131cc:	97a50ce3          	beq	a0,s10,12b44 <__svfscanf_r+0x358>
   131d0:	000ba683          	lw	a3,0(s7)
   131d4:	00c12783          	lw	a5,12(sp)
   131d8:	001d0d93          	addi	s11,s10,1
   131dc:	0006c603          	lbu	a2,0(a3)
   131e0:	01a78733          	add	a4,a5,s10
   131e4:	00168693          	addi	a3,a3,1
   131e8:	c8c70823          	sb	a2,-880(a4)
   131ec:	004ba703          	lw	a4,4(s7)
   131f0:	00812603          	lw	a2,8(sp)
   131f4:	00dba023          	sw	a3,0(s7)
   131f8:	fff70713          	addi	a4,a4,-1
   131fc:	00eba223          	sw	a4,4(s7)
   13200:	000d8693          	mv	a3,s11
   13204:	000c8713          	mv	a4,s9
   13208:	000c0593          	mv	a1,s8
   1320c:	00098513          	mv	a0,s3
   13210:	1b4040ef          	jal	ra,173c4 <_mbrtowc_r>
   13214:	fff00793          	li	a5,-1
   13218:	92f506e3          	beq	a0,a5,12b44 <__svfscanf_r+0x358>
   1321c:	04051463          	bnez	a0,13264 <__svfscanf_r+0xa78>
   13220:	000c2023          	sw	zero,0(s8)
   13224:	000c2503          	lw	a0,0(s8)
   13228:	7fc010ef          	jal	ra,14a24 <iswspace>
   1322c:	00050d13          	mv	s10,a0
   13230:	08050063          	beqz	a0,132b0 <__svfscanf_r+0xac4>
   13234:	040d9e63          	bnez	s11,13290 <__svfscanf_r+0xaa4>
   13238:	e6041663          	bnez	s0,128a4 <__svfscanf_r+0xb8>
   1323c:	000c2023          	sw	zero,0(s8)
   13240:	d69ff06f          	j	12fa8 <__svfscanf_r+0x7bc>
   13244:	fffff7b7          	lui	a5,0xfffff
   13248:	b8478c13          	addi	s8,a5,-1148 # ffffeb84 <__global_pointer$+0xfffd29cc>
   1324c:	000017b7          	lui	a5,0x1
   13250:	49078793          	addi	a5,a5,1168 # 1490 <_start-0xebe4>
   13254:	04010713          	addi	a4,sp,64
   13258:	00e787b3          	add	a5,a5,a4
   1325c:	01878c33          	add	s8,a5,s8
   13260:	f15ff06f          	j	13174 <__svfscanf_r+0x988>
   13264:	ffe00693          	li	a3,-2
   13268:	000d8d13          	mv	s10,s11
   1326c:	fad51ce3          	bne	a0,a3,13224 <__svfscanf_r+0xa38>
   13270:	004ba683          	lw	a3,4(s7)
   13274:	f2d04ae3          	bgtz	a3,131a8 <__svfscanf_r+0x9bc>
   13278:	000b8593          	mv	a1,s7
   1327c:	00098513          	mv	a0,s3
   13280:	2f0050ef          	jal	ra,18570 <__srefill_r>
   13284:	f20502e3          	beqz	a0,131a8 <__svfscanf_r+0x9bc>
   13288:	8a0d1ee3          	bnez	s10,12b44 <__svfscanf_r+0x358>
   1328c:	fadff06f          	j	13238 <__svfscanf_r+0xa4c>
   13290:	00812783          	lw	a5,8(sp)
   13294:	fffd8d93          	addi	s11,s11,-1
   13298:	000b8613          	mv	a2,s7
   1329c:	01b78733          	add	a4,a5,s11
   132a0:	00074583          	lbu	a1,0(a4)
   132a4:	00098513          	mv	a0,s3
   132a8:	57d090ef          	jal	ra,1d024 <_ungetc_r>
   132ac:	f89ff06f          	j	13234 <__svfscanf_r+0xa48>
   132b0:	01b90933          	add	s2,s2,s11
   132b4:	fff48493          	addi	s1,s1,-1
   132b8:	fa041ce3          	bnez	s0,13270 <__svfscanf_r+0xa84>
   132bc:	004c0c13          	addi	s8,s8,4
   132c0:	00040d13          	mv	s10,s0
   132c4:	fadff06f          	j	13270 <__svfscanf_r+0xa84>
   132c8:	0a041663          	bnez	s0,13374 <__svfscanf_r+0xb88>
   132cc:	000aac03          	lw	s8,0(s5)
   132d0:	004a8413          	addi	s0,s5,4
   132d4:	009c04b3          	add	s1,s8,s1
   132d8:	000c0a93          	mv	s5,s8
   132dc:	0e5030ef          	jal	ra,16bc0 <__locale_ctype_ptr>
   132e0:	000ba683          	lw	a3,0(s7)
   132e4:	0006c703          	lbu	a4,0(a3)
   132e8:	00e50533          	add	a0,a0,a4
   132ec:	00154703          	lbu	a4,1(a0)
   132f0:	00877713          	andi	a4,a4,8
   132f4:	04071063          	bnez	a4,13334 <__svfscanf_r+0xb48>
   132f8:	004ba703          	lw	a4,4(s7)
   132fc:	001a8a93          	addi	s5,s5,1
   13300:	fff70713          	addi	a4,a4,-1
   13304:	00eba223          	sw	a4,4(s7)
   13308:	00168713          	addi	a4,a3,1
   1330c:	00eba023          	sw	a4,0(s7)
   13310:	0006c703          	lbu	a4,0(a3)
   13314:	feea8fa3          	sb	a4,-1(s5)
   13318:	009a8e63          	beq	s5,s1,13334 <__svfscanf_r+0xb48>
   1331c:	004ba703          	lw	a4,4(s7)
   13320:	fae04ee3          	bgtz	a4,132dc <__svfscanf_r+0xaf0>
   13324:	000b8593          	mv	a1,s7
   13328:	00098513          	mv	a0,s3
   1332c:	244050ef          	jal	ra,18570 <__srefill_r>
   13330:	fa0506e3          	beqz	a0,132dc <__svfscanf_r+0xaf0>
   13334:	000a8023          	sb	zero,0(s5)
   13338:	418a8ab3          	sub	s5,s5,s8
   1333c:	01590933          	add	s2,s2,s5
   13340:	cf9ff06f          	j	13038 <__svfscanf_r+0x84c>
   13344:	004ba683          	lw	a3,4(s7)
   13348:	00170713          	addi	a4,a4,1
   1334c:	001c0c13          	addi	s8,s8,1
   13350:	fff68693          	addi	a3,a3,-1
   13354:	00dba223          	sw	a3,4(s7)
   13358:	00eba023          	sw	a4,0(s7)
   1335c:	03848a63          	beq	s1,s8,13390 <__svfscanf_r+0xba4>
   13360:	00d04a63          	bgtz	a3,13374 <__svfscanf_r+0xb88>
   13364:	000b8593          	mv	a1,s7
   13368:	00098513          	mv	a0,s3
   1336c:	204050ef          	jal	ra,18570 <__srefill_r>
   13370:	02051063          	bnez	a0,13390 <__svfscanf_r+0xba4>
   13374:	04d030ef          	jal	ra,16bc0 <__locale_ctype_ptr>
   13378:	000ba703          	lw	a4,0(s7)
   1337c:	00074683          	lbu	a3,0(a4)
   13380:	00d50533          	add	a0,a0,a3
   13384:	00154683          	lbu	a3,1(a0)
   13388:	0086f693          	andi	a3,a3,8
   1338c:	fa068ce3          	beqz	a3,13344 <__svfscanf_r+0xb58>
   13390:	01890933          	add	s2,s2,s8
   13394:	d10ff06f          	j	128a4 <__svfscanf_r+0xb8>
   13398:	000016b7          	lui	a3,0x1
   1339c:	fff48713          	addi	a4,s1,-1
   133a0:	36c68613          	addi	a2,a3,876 # 136c <_start-0xed08>
   133a4:	00000d13          	li	s10,0
   133a8:	00e67a63          	bleu	a4,a2,133bc <__svfscanf_r+0xbd0>
   133ac:	fffff7b7          	lui	a5,0xfffff
   133b0:	c9378d13          	addi	s10,a5,-877 # ffffec93 <__global_pointer$+0xfffd2adb>
   133b4:	01a48d33          	add	s10,s1,s10
   133b8:	36d68493          	addi	s1,a3,877
   133bc:	00001db7          	lui	s11,0x1
   133c0:	00812c83          	lw	s9,8(sp)
   133c4:	d80d8713          	addi	a4,s11,-640 # d80 <_start-0xf2f4>
   133c8:	fffff7b7          	lui	a5,0xfffff
   133cc:	00e46433          	or	s0,s0,a4
   133d0:	00000c13          	li	s8,0
   133d4:	03900893          	li	a7,57
   133d8:	05800813          	li	a6,88
   133dc:	47f78613          	addi	a2,a5,1151 # fffff47f <__global_pointer$+0xfffd32c7>
   133e0:	800d8d93          	addi	s11,s11,-2048
   133e4:	000ba683          	lw	a3,0(s7)
   133e8:	0006c703          	lbu	a4,0(a3)
   133ec:	08e8ea63          	bltu	a7,a4,13480 <__svfscanf_r+0xc94>
   133f0:	03800593          	li	a1,56
   133f4:	14b77c63          	bleu	a1,a4,1354c <__svfscanf_r+0xd60>
   133f8:	03000593          	li	a1,48
   133fc:	0cb70a63          	beq	a4,a1,134d0 <__svfscanf_r+0xce4>
   13400:	12e5ea63          	bltu	a1,a4,13534 <__svfscanf_r+0xd48>
   13404:	02b00593          	li	a1,43
   13408:	16b70063          	beq	a4,a1,13568 <__svfscanf_r+0xd7c>
   1340c:	02d00593          	li	a1,45
   13410:	14b70c63          	beq	a4,a1,13568 <__svfscanf_r+0xd7c>
   13414:	10047713          	andi	a4,s0,256
   13418:	02070663          	beqz	a4,13444 <__svfscanf_r+0xc58>
   1341c:	00812783          	lw	a5,8(sp)
   13420:	0197fe63          	bleu	s9,a5,1343c <__svfscanf_r+0xc50>
   13424:	fffcc583          	lbu	a1,-1(s9)
   13428:	fffc8493          	addi	s1,s9,-1
   1342c:	000b8613          	mv	a2,s7
   13430:	00098513          	mv	a0,s3
   13434:	3f1090ef          	jal	ra,1d024 <_ungetc_r>
   13438:	00048c93          	mv	s9,s1
   1343c:	00812783          	lw	a5,8(sp)
   13440:	eafc8663          	beq	s9,a5,12aec <__svfscanf_r+0x300>
   13444:	01047713          	andi	a4,s0,16
   13448:	16071a63          	bnez	a4,135bc <__svfscanf_r+0xdd0>
   1344c:	00812583          	lw	a1,8(sp)
   13450:	00012783          	lw	a5,0(sp)
   13454:	000a0693          	mv	a3,s4
   13458:	00000613          	li	a2,0
   1345c:	00098513          	mv	a0,s3
   13460:	000c8023          	sb	zero,0(s9)
   13464:	000780e7          	jalr	a5
   13468:	02047713          	andi	a4,s0,32
   1346c:	004a8493          	addi	s1,s5,4
   13470:	12070a63          	beqz	a4,135a4 <__svfscanf_r+0xdb8>
   13474:	000aa703          	lw	a4,0(s5)
   13478:	00a72023          	sw	a0,0(a4)
   1347c:	1380006f          	j	135b4 <__svfscanf_r+0xdc8>
   13480:	03070a63          	beq	a4,a6,134b4 <__svfscanf_r+0xcc8>
   13484:	00e86c63          	bltu	a6,a4,1349c <__svfscanf_r+0xcb0>
   13488:	fbf70593          	addi	a1,a4,-65
   1348c:	00500513          	li	a0,5
   13490:	f8b562e3          	bltu	a0,a1,13414 <__svfscanf_r+0xc28>
   13494:	00a00593          	li	a1,10
   13498:	0c80006f          	j	13560 <__svfscanf_r+0xd74>
   1349c:	06100593          	li	a1,97
   134a0:	f6b76ae3          	bltu	a4,a1,13414 <__svfscanf_r+0xc28>
   134a4:	06600593          	li	a1,102
   134a8:	fee5f6e3          	bleu	a4,a1,13494 <__svfscanf_r+0xca8>
   134ac:	07800593          	li	a1,120
   134b0:	f6b712e3          	bne	a4,a1,13414 <__svfscanf_r+0xc28>
   134b4:	60047593          	andi	a1,s0,1536
   134b8:	20000513          	li	a0,512
   134bc:	f4a59ce3          	bne	a1,a0,13414 <__svfscanf_r+0xc28>
   134c0:	dff47413          	andi	s0,s0,-513
   134c4:	50046413          	ori	s0,s0,1280
   134c8:	01000a13          	li	s4,16
   134cc:	0240006f          	j	134f0 <__svfscanf_r+0xd04>
   134d0:	01b475b3          	and	a1,s0,s11
   134d4:	00058e63          	beqz	a1,134f0 <__svfscanf_r+0xd04>
   134d8:	000a1663          	bnez	s4,134e4 <__svfscanf_r+0xcf8>
   134dc:	20046413          	ori	s0,s0,512
   134e0:	00800a13          	li	s4,8
   134e4:	40047593          	andi	a1,s0,1024
   134e8:	00058a63          	beqz	a1,134fc <__svfscanf_r+0xd10>
   134ec:	a7f47413          	andi	s0,s0,-1409
   134f0:	00ec8023          	sb	a4,0(s9)
   134f4:	001c8c93          	addi	s9,s9,1
   134f8:	0180006f          	j	13510 <__svfscanf_r+0xd24>
   134fc:	c7f47413          	andi	s0,s0,-897
   13500:	000d0663          	beqz	s10,1350c <__svfscanf_r+0xd20>
   13504:	fffd0d13          	addi	s10,s10,-1
   13508:	00148493          	addi	s1,s1,1
   1350c:	001c0c13          	addi	s8,s8,1
   13510:	004ba703          	lw	a4,4(s7)
   13514:	fff70713          	addi	a4,a4,-1
   13518:	00eba223          	sw	a4,4(s7)
   1351c:	04e05e63          	blez	a4,13578 <__svfscanf_r+0xd8c>
   13520:	00168693          	addi	a3,a3,1
   13524:	00dba023          	sw	a3,0(s7)
   13528:	fff48493          	addi	s1,s1,-1
   1352c:	ea049ce3          	bnez	s1,133e4 <__svfscanf_r+0xbf8>
   13530:	ee5ff06f          	j	13414 <__svfscanf_r+0xc28>
   13534:	01412783          	lw	a5,20(sp)
   13538:	001a1a13          	slli	s4,s4,0x1
   1353c:	01478a33          	add	s4,a5,s4
   13540:	000a1a03          	lh	s4,0(s4)
   13544:	00c47433          	and	s0,s0,a2
   13548:	fa9ff06f          	j	134f0 <__svfscanf_r+0xd04>
   1354c:	01412783          	lw	a5,20(sp)
   13550:	001a1a13          	slli	s4,s4,0x1
   13554:	00800593          	li	a1,8
   13558:	01478a33          	add	s4,a5,s4
   1355c:	000a1a03          	lh	s4,0(s4)
   13560:	ff45c2e3          	blt	a1,s4,13544 <__svfscanf_r+0xd58>
   13564:	eb1ff06f          	j	13414 <__svfscanf_r+0xc28>
   13568:	08047593          	andi	a1,s0,128
   1356c:	ea0584e3          	beqz	a1,13414 <__svfscanf_r+0xc28>
   13570:	f7f47413          	andi	s0,s0,-129
   13574:	f7dff06f          	j	134f0 <__svfscanf_r+0xd04>
   13578:	000b8593          	mv	a1,s7
   1357c:	00098513          	mv	a0,s3
   13580:	00c12c23          	sw	a2,24(sp)
   13584:	01012823          	sw	a6,16(sp)
   13588:	01112623          	sw	a7,12(sp)
   1358c:	7e5040ef          	jal	ra,18570 <__srefill_r>
   13590:	00c12883          	lw	a7,12(sp)
   13594:	01012803          	lw	a6,16(sp)
   13598:	01812603          	lw	a2,24(sp)
   1359c:	f80506e3          	beqz	a0,13528 <__svfscanf_r+0xd3c>
   135a0:	e75ff06f          	j	13414 <__svfscanf_r+0xc28>
   135a4:	00847713          	andi	a4,s0,8
   135a8:	02070263          	beqz	a4,135cc <__svfscanf_r+0xde0>
   135ac:	000aa703          	lw	a4,0(s5)
   135b0:	00a70023          	sb	a0,0(a4)
   135b4:	001b0b13          	addi	s6,s6,1
   135b8:	00048a93          	mv	s5,s1
   135bc:	00812783          	lw	a5,8(sp)
   135c0:	40fc8cb3          	sub	s9,s9,a5
   135c4:	018c8c33          	add	s8,s9,s8
   135c8:	dc9ff06f          	j	13390 <__svfscanf_r+0xba4>
   135cc:	00447713          	andi	a4,s0,4
   135d0:	00070863          	beqz	a4,135e0 <__svfscanf_r+0xdf4>
   135d4:	000aa703          	lw	a4,0(s5)
   135d8:	00a71023          	sh	a0,0(a4)
   135dc:	fd9ff06f          	j	135b4 <__svfscanf_r+0xdc8>
   135e0:	00147713          	andi	a4,s0,1
   135e4:	e80718e3          	bnez	a4,13474 <__svfscanf_r+0xc88>
   135e8:	00247413          	andi	s0,s0,2
   135ec:	e80404e3          	beqz	s0,13474 <__svfscanf_r+0xc88>
   135f0:	0001b7b7          	lui	a5,0x1b
   135f4:	f2878713          	addi	a4,a5,-216 # 1af28 <_strtoul_r>
   135f8:	00012783          	lw	a5,0(sp)
   135fc:	000a0693          	mv	a3,s4
   13600:	00000613          	li	a2,0
   13604:	00812583          	lw	a1,8(sp)
   13608:	00098513          	mv	a0,s3
   1360c:	00e79c63          	bne	a5,a4,13624 <__svfscanf_r+0xe38>
   13610:	6c4070ef          	jal	ra,1acd4 <_strtoull_r>
   13614:	000aa703          	lw	a4,0(s5)
   13618:	00a72023          	sw	a0,0(a4)
   1361c:	00b72223          	sw	a1,4(a4)
   13620:	f95ff06f          	j	135b4 <__svfscanf_r+0xdc8>
   13624:	010070ef          	jal	ra,1a634 <_strtoll_r>
   13628:	fedff06f          	j	13614 <__svfscanf_r+0xe28>
   1362c:	04500513          	li	a0,69
   13630:	08a68c63          	beq	a3,a0,136c8 <__svfscanf_r+0xedc>
   13634:	02d56663          	bltu	a0,a3,13660 <__svfscanf_r+0xe74>
   13638:	04100513          	li	a0,65
   1363c:	18a68663          	beq	a3,a0,137c8 <__svfscanf_r+0xfdc>
   13640:	01812783          	lw	a5,24(sp)
   13644:	0007c503          	lbu	a0,0(a5)
   13648:	18d51263          	bne	a0,a3,137cc <__svfscanf_r+0xfe0>
   1364c:	20047513          	andi	a0,s0,512
   13650:	16050e63          	beqz	a0,137cc <__svfscanf_r+0xfe0>
   13654:	d7f47413          	andi	s0,s0,-641
   13658:	01812623          	sw	s8,12(sp)
   1365c:	12c0006f          	j	13788 <__svfscanf_r+0xf9c>
   13660:	04600513          	li	a0,70
   13664:	1ca68263          	beq	a3,a0,13828 <__svfscanf_r+0x103c>
   13668:	04900513          	li	a0,73
   1366c:	fca69ae3          	bne	a3,a0,13640 <__svfscanf_r+0xe54>
   13670:	1a0c9463          	bnez	s9,13818 <__svfscanf_r+0x102c>
   13674:	140c1e63          	bnez	s8,137d0 <__svfscanf_r+0xfe4>
   13678:	70047513          	andi	a0,s0,1792
   1367c:	15e51c63          	bne	a0,t5,137d4 <__svfscanf_r+0xfe8>
   13680:	87f47413          	andi	s0,s0,-1921
   13684:	00100c93          	li	s9,1
   13688:	1000006f          	j	13788 <__svfscanf_r+0xf9c>
   1368c:	19f68e63          	beq	a3,t6,13828 <__svfscanf_r+0x103c>
   13690:	06dfea63          	bltu	t6,a3,13704 <__svfscanf_r+0xf18>
   13694:	05900513          	li	a0,89
   13698:	08a68863          	beq	a3,a0,13728 <__svfscanf_r+0xf3c>
   1369c:	00d56e63          	bltu	a0,a3,136b8 <__svfscanf_r+0xecc>
   136a0:	05400513          	li	a0,84
   136a4:	f8a69ee3          	bne	a3,a0,13640 <__svfscanf_r+0xe54>
   136a8:	00600513          	li	a0,6
   136ac:	12ac9063          	bne	s9,a0,137cc <__svfscanf_r+0xfe0>
   136b0:	00700c93          	li	s9,7
   136b4:	0d40006f          	j	13788 <__svfscanf_r+0xf9c>
   136b8:	06100513          	li	a0,97
   136bc:	10a68663          	beq	a3,a0,137c8 <__svfscanf_r+0xfdc>
   136c0:	06500513          	li	a0,101
   136c4:	f6a69ee3          	bne	a3,a0,13640 <__svfscanf_r+0xe54>
   136c8:	50047513          	andi	a0,s0,1280
   136cc:	00550863          	beq	a0,t0,136dc <__svfscanf_r+0xef0>
   136d0:	40047513          	andi	a0,s0,1024
   136d4:	0e050c63          	beqz	a0,137cc <__svfscanf_r+0xfe0>
   136d8:	0e0c0e63          	beqz	s8,137d4 <__svfscanf_r+0xfe8>
   136dc:	20047513          	andi	a0,s0,512
   136e0:	00051a63          	bnez	a0,136f4 <__svfscanf_r+0xf08>
   136e4:	00c12783          	lw	a5,12(sp)
   136e8:	000d0d93          	mv	s11,s10
   136ec:	40fc07b3          	sub	a5,s8,a5
   136f0:	00f12823          	sw	a5,16(sp)
   136f4:	87f47413          	andi	s0,s0,-1921
   136f8:	18046413          	ori	s0,s0,384
   136fc:	00000c13          	li	s8,0
   13700:	0880006f          	j	13788 <__svfscanf_r+0xf9c>
   13704:	06e00513          	li	a0,110
   13708:	08a68663          	beq	a3,a0,13794 <__svfscanf_r+0xfa8>
   1370c:	00d56663          	bltu	a0,a3,13718 <__svfscanf_r+0xf2c>
   13710:	06900513          	li	a0,105
   13714:	f59ff06f          	j	1366c <__svfscanf_r+0xe80>
   13718:	07400513          	li	a0,116
   1371c:	f8a686e3          	beq	a3,a0,136a8 <__svfscanf_r+0xebc>
   13720:	07900513          	li	a0,121
   13724:	f0a69ee3          	bne	a3,a0,13640 <__svfscanf_r+0xe54>
   13728:	00700513          	li	a0,7
   1372c:	0aac9063          	bne	s9,a0,137cc <__svfscanf_r+0xfe0>
   13730:	00800c93          	li	s9,8
   13734:	0540006f          	j	13788 <__svfscanf_r+0xf9c>
   13738:	10047513          	andi	a0,s0,256
   1373c:	04050063          	beqz	a0,1377c <__svfscanf_r+0xf90>
   13740:	f7f47413          	andi	s0,s0,-129
   13744:	001c0c13          	addi	s8,s8,1
   13748:	00088663          	beqz	a7,13754 <__svfscanf_r+0xf68>
   1374c:	fff88893          	addi	a7,a7,-1
   13750:	00148493          	addi	s1,s1,1
   13754:	004ba683          	lw	a3,4(s7)
   13758:	fff48493          	addi	s1,s1,-1
   1375c:	00190913          	addi	s2,s2,1
   13760:	fff68693          	addi	a3,a3,-1
   13764:	00dba223          	sw	a3,4(s7)
   13768:	0cd05e63          	blez	a3,13844 <__svfscanf_r+0x1058>
   1376c:	00158593          	addi	a1,a1,1
   13770:	00bba023          	sw	a1,0(s7)
   13774:	fc049263          	bnez	s1,12f38 <__svfscanf_r+0x74c>
   13778:	0540006f          	j	137cc <__svfscanf_r+0xfe0>
   1377c:	01960533          	add	a0,a2,s9
   13780:	04051663          	bnez	a0,137cc <__svfscanf_r+0xfe0>
   13784:	e7f47413          	andi	s0,s0,-385
   13788:	00dd0023          	sb	a3,0(s10)
   1378c:	001d0d13          	addi	s10,s10,1
   13790:	fc5ff06f          	j	13754 <__svfscanf_r+0xf68>
   13794:	00061e63          	bnez	a2,137b0 <__svfscanf_r+0xfc4>
   13798:	000c1e63          	bnez	s8,137b4 <__svfscanf_r+0xfc8>
   1379c:	70047513          	andi	a0,s0,1792
   137a0:	01e51a63          	bne	a0,t5,137b4 <__svfscanf_r+0xfc8>
   137a4:	87f47413          	andi	s0,s0,-1921
   137a8:	00100613          	li	a2,1
   137ac:	fddff06f          	j	13788 <__svfscanf_r+0xf9c>
   137b0:	09d60263          	beq	a2,t4,13834 <__svfscanf_r+0x1048>
   137b4:	01cc8463          	beq	s9,t3,137bc <__svfscanf_r+0xfd0>
   137b8:	007c9a63          	bne	s9,t2,137cc <__svfscanf_r+0xfe0>
   137bc:	001c8c93          	addi	s9,s9,1
   137c0:	0ffcfc93          	andi	s9,s9,255
   137c4:	fc5ff06f          	j	13788 <__svfscanf_r+0xf9c>
   137c8:	07c60a63          	beq	a2,t3,1383c <__svfscanf_r+0x1050>
   137cc:	000c0463          	beqz	s8,137d4 <__svfscanf_r+0xfe8>
   137d0:	eff47413          	andi	s0,s0,-257
   137d4:	fff60613          	addi	a2,a2,-1
   137d8:	00100693          	li	a3,1
   137dc:	0cc6e263          	bltu	a3,a2,138a0 <__svfscanf_r+0x10b4>
   137e0:	000017b7          	lui	a5,0x1
   137e4:	fffff437          	lui	s0,0xfffff
   137e8:	49078793          	addi	a5,a5,1168 # 1490 <_start-0xebe4>
   137ec:	04010713          	addi	a4,sp,64
   137f0:	c9040413          	addi	s0,s0,-880 # ffffec90 <__global_pointer$+0xfffd2ad8>
   137f4:	00e787b3          	add	a5,a5,a4
   137f8:	00878433          	add	s0,a5,s0
   137fc:	afa47863          	bleu	s10,s0,12aec <__svfscanf_r+0x300>
   13800:	fffd0d13          	addi	s10,s10,-1
   13804:	000d4583          	lbu	a1,0(s10)
   13808:	000b8613          	mv	a2,s7
   1380c:	00098513          	mv	a0,s3
   13810:	015090ef          	jal	ra,1d024 <_ungetc_r>
   13814:	fe9ff06f          	j	137fc <__svfscanf_r+0x1010>
   13818:	ffdc8513          	addi	a0,s9,-3
   1381c:	0fd57513          	andi	a0,a0,253
   13820:	f8050ee3          	beqz	a0,137bc <__svfscanf_r+0xfd0>
   13824:	fa9ff06f          	j	137cc <__svfscanf_r+0xfe0>
   13828:	fbdc92e3          	bne	s9,t4,137cc <__svfscanf_r+0xfe0>
   1382c:	00300c93          	li	s9,3
   13830:	f59ff06f          	j	13788 <__svfscanf_r+0xf9c>
   13834:	00300613          	li	a2,3
   13838:	f51ff06f          	j	13788 <__svfscanf_r+0xf9c>
   1383c:	00200613          	li	a2,2
   13840:	f49ff06f          	j	13788 <__svfscanf_r+0xf9c>
   13844:	000b8593          	mv	a1,s7
   13848:	00098513          	mv	a0,s3
   1384c:	03f12e23          	sw	t6,60(sp)
   13850:	02512c23          	sw	t0,56(sp)
   13854:	03e12a23          	sw	t5,52(sp)
   13858:	03d12823          	sw	t4,48(sp)
   1385c:	02712623          	sw	t2,44(sp)
   13860:	03c12423          	sw	t3,40(sp)
   13864:	02612223          	sw	t1,36(sp)
   13868:	02c12023          	sw	a2,32(sp)
   1386c:	01112e23          	sw	a7,28(sp)
   13870:	501040ef          	jal	ra,18570 <__srefill_r>
   13874:	01c12883          	lw	a7,28(sp)
   13878:	02012603          	lw	a2,32(sp)
   1387c:	02412303          	lw	t1,36(sp)
   13880:	02812e03          	lw	t3,40(sp)
   13884:	02c12383          	lw	t2,44(sp)
   13888:	03012e83          	lw	t4,48(sp)
   1388c:	03412f03          	lw	t5,52(sp)
   13890:	03812283          	lw	t0,56(sp)
   13894:	03c12f83          	lw	t6,60(sp)
   13898:	ec050ee3          	beqz	a0,13774 <__svfscanf_r+0xf88>
   1389c:	f31ff06f          	j	137cc <__svfscanf_r+0xfe0>
   138a0:	fffc8693          	addi	a3,s9,-1
   138a4:	00600613          	li	a2,6
   138a8:	08d66263          	bltu	a2,a3,1392c <__svfscanf_r+0x1140>
   138ac:	00200693          	li	a3,2
   138b0:	0d96e263          	bltu	a3,s9,13974 <__svfscanf_r+0x1188>
   138b4:	000017b7          	lui	a5,0x1
   138b8:	fffff437          	lui	s0,0xfffff
   138bc:	49078793          	addi	a5,a5,1168 # 1490 <_start-0xebe4>
   138c0:	04010713          	addi	a4,sp,64
   138c4:	c9040413          	addi	s0,s0,-880 # ffffec90 <__global_pointer$+0xfffd2ad8>
   138c8:	00e787b3          	add	a5,a5,a4
   138cc:	00878433          	add	s0,a5,s0
   138d0:	a1a47e63          	bleu	s10,s0,12aec <__svfscanf_r+0x300>
   138d4:	fffd0d13          	addi	s10,s10,-1
   138d8:	000d4583          	lbu	a1,0(s10)
   138dc:	000b8613          	mv	a2,s7
   138e0:	00098513          	mv	a0,s3
   138e4:	740090ef          	jal	ra,1d024 <_ungetc_r>
   138e8:	fe9ff06f          	j	138d0 <__svfscanf_r+0x10e4>
   138ec:	fff6c583          	lbu	a1,-1(a3)
   138f0:	000b8613          	mv	a2,s7
   138f4:	fff68693          	addi	a3,a3,-1
   138f8:	00098513          	mv	a0,s3
   138fc:	01112e23          	sw	a7,28(sp)
   13900:	00d12c23          	sw	a3,24(sp)
   13904:	720090ef          	jal	ra,1d024 <_ungetc_r>
   13908:	01812683          	lw	a3,24(sp)
   1390c:	01c12883          	lw	a7,28(sp)
   13910:	fff48493          	addi	s1,s1,-1
   13914:	0ff4f493          	andi	s1,s1,255
   13918:	fd149ae3          	bne	s1,a7,138ec <__svfscanf_r+0x1100>
   1391c:	ffdc8c93          	addi	s9,s9,-3
   13920:	0ffcfc93          	andi	s9,s9,255
   13924:	419d0d33          	sub	s10,s10,s9
   13928:	41990933          	sub	s2,s2,s9
   1392c:	10047693          	andi	a3,s0,256
   13930:	08068e63          	beqz	a3,139cc <__svfscanf_r+0x11e0>
   13934:	40047693          	andi	a3,s0,1024
   13938:	04068663          	beqz	a3,13984 <__svfscanf_r+0x1198>
   1393c:	000017b7          	lui	a5,0x1
   13940:	fffff437          	lui	s0,0xfffff
   13944:	49078793          	addi	a5,a5,1168 # 1490 <_start-0xebe4>
   13948:	04010713          	addi	a4,sp,64
   1394c:	c9040413          	addi	s0,s0,-880 # ffffec90 <__global_pointer$+0xfffd2ad8>
   13950:	00e787b3          	add	a5,a5,a4
   13954:	00878433          	add	s0,a5,s0
   13958:	99a47a63          	bleu	s10,s0,12aec <__svfscanf_r+0x300>
   1395c:	fffd0d13          	addi	s10,s10,-1
   13960:	000d4583          	lbu	a1,0(s10)
   13964:	000b8613          	mv	a2,s7
   13968:	00098513          	mv	a0,s3
   1396c:	6b8090ef          	jal	ra,1d024 <_ungetc_r>
   13970:	fe9ff06f          	j	13958 <__svfscanf_r+0x116c>
   13974:	000c8493          	mv	s1,s9
   13978:	000d0693          	mv	a3,s10
   1397c:	00200893          	li	a7,2
   13980:	f91ff06f          	j	13910 <__svfscanf_r+0x1124>
   13984:	fffd4583          	lbu	a1,-1(s10)
   13988:	06500693          	li	a3,101
   1398c:	fffd0493          	addi	s1,s10,-1
   13990:	fff90c93          	addi	s9,s2,-1
   13994:	02d58263          	beq	a1,a3,139b8 <__svfscanf_r+0x11cc>
   13998:	04500693          	li	a3,69
   1399c:	00d58e63          	beq	a1,a3,139b8 <__svfscanf_r+0x11cc>
   139a0:	000b8613          	mv	a2,s7
   139a4:	00098513          	mv	a0,s3
   139a8:	67c090ef          	jal	ra,1d024 <_ungetc_r>
   139ac:	ffed4583          	lbu	a1,-2(s10)
   139b0:	ffed0493          	addi	s1,s10,-2
   139b4:	ffe90c93          	addi	s9,s2,-2
   139b8:	000b8613          	mv	a2,s7
   139bc:	00098513          	mv	a0,s3
   139c0:	664090ef          	jal	ra,1d024 <_ungetc_r>
   139c4:	000c8913          	mv	s2,s9
   139c8:	00048d13          	mv	s10,s1
   139cc:	01047693          	andi	a3,s0,16
   139d0:	00068463          	beqz	a3,139d8 <__svfscanf_r+0x11ec>
   139d4:	ed1fe06f          	j	128a4 <__svfscanf_r+0xb8>
   139d8:	000d0023          	sb	zero,0(s10)
   139dc:	60047693          	andi	a3,s0,1536
   139e0:	40000613          	li	a2,1024
   139e4:	06c69e63          	bne	a3,a2,13a60 <__svfscanf_r+0x1274>
   139e8:	00c12783          	lw	a5,12(sp)
   139ec:	40fc0c33          	sub	s8,s8,a5
   139f0:	41800633          	neg	a2,s8
   139f4:	080c1a63          	bnez	s8,13a88 <__svfscanf_r+0x129c>
   139f8:	00247493          	andi	s1,s0,2
   139fc:	0c048063          	beqz	s1,13abc <__svfscanf_r+0x12d0>
   13a00:	fffff7b7          	lui	a5,0xfffff
   13a04:	b7078513          	addi	a0,a5,-1168 # ffffeb70 <__global_pointer$+0xfffd29b8>
   13a08:	000017b7          	lui	a5,0x1
   13a0c:	04010713          	addi	a4,sp,64
   13a10:	00812603          	lw	a2,8(sp)
   13a14:	49078793          	addi	a5,a5,1168 # 1490 <_start-0xebe4>
   13a18:	00e787b3          	add	a5,a5,a4
   13a1c:	00000693          	li	a3,0
   13a20:	00098593          	mv	a1,s3
   13a24:	00a78533          	add	a0,a5,a0
   13a28:	04d060ef          	jal	ra,1a274 <_strtold_r>
   13a2c:	04012583          	lw	a1,64(sp)
   13a30:	04412603          	lw	a2,68(sp)
   13a34:	04812683          	lw	a3,72(sp)
   13a38:	04c12703          	lw	a4,76(sp)
   13a3c:	00000d13          	li	s10,0
   13a40:	00000d93          	li	s11,0
   13a44:	00147413          	andi	s0,s0,1
   13a48:	000aac03          	lw	s8,0(s5)
   13a4c:	004a8a93          	addi	s5,s5,4
   13a50:	08040c63          	beqz	s0,13ae8 <__svfscanf_r+0x12fc>
   13a54:	01ac2023          	sw	s10,0(s8)
   13a58:	01bc2223          	sw	s11,4(s8)
   13a5c:	d4cff06f          	j	12fa8 <__svfscanf_r+0x7bc>
   13a60:	01012783          	lw	a5,16(sp)
   13a64:	f8078ae3          	beqz	a5,139f8 <__svfscanf_r+0x120c>
   13a68:	00000613          	li	a2,0
   13a6c:	00a00693          	li	a3,10
   13a70:	001d8593          	addi	a1,s11,1
   13a74:	00098513          	mv	a0,s3
   13a78:	62d060ef          	jal	ra,1a8a4 <_strtol_r>
   13a7c:	01012783          	lw	a5,16(sp)
   13a80:	000d8d13          	mv	s10,s11
   13a84:	40f50633          	sub	a2,a0,a5
   13a88:	000017b7          	lui	a5,0x1
   13a8c:	48378713          	addi	a4,a5,1155 # 1483 <_start-0xebf1>
   13a90:	04010693          	addi	a3,sp,64
   13a94:	00e686b3          	add	a3,a3,a4
   13a98:	00dd6863          	bltu	s10,a3,13aa8 <__svfscanf_r+0x12bc>
   13a9c:	48278793          	addi	a5,a5,1154
   13aa0:	04010713          	addi	a4,sp,64
   13aa4:	00f70d33          	add	s10,a4,a5
   13aa8:	0002a5b7          	lui	a1,0x2a
   13aac:	96058593          	addi	a1,a1,-1696 # 29960 <basefix.4425+0x24>
   13ab0:	000d0513          	mv	a0,s10
   13ab4:	6b5040ef          	jal	ra,18968 <sprintf>
   13ab8:	f41ff06f          	j	139f8 <__svfscanf_r+0x120c>
   13abc:	00812583          	lw	a1,8(sp)
   13ac0:	00000613          	li	a2,0
   13ac4:	00098513          	mv	a0,s3
   13ac8:	4c4060ef          	jal	ra,19f8c <_strtod_r>
   13acc:	00058d93          	mv	s11,a1
   13ad0:	00050d13          	mv	s10,a0
   13ad4:	00000593          	li	a1,0
   13ad8:	00000613          	li	a2,0
   13adc:	00000693          	li	a3,0
   13ae0:	00000713          	li	a4,0
   13ae4:	f61ff06f          	j	13a44 <__svfscanf_r+0x1258>
   13ae8:	00048c63          	beqz	s1,13b00 <__svfscanf_r+0x1314>
   13aec:	00bc2023          	sw	a1,0(s8)
   13af0:	00cc2223          	sw	a2,4(s8)
   13af4:	00dc2423          	sw	a3,8(s8)
   13af8:	00ec2623          	sw	a4,12(s8)
   13afc:	cacff06f          	j	12fa8 <__svfscanf_r+0x7bc>
   13b00:	000d0613          	mv	a2,s10
   13b04:	000d8693          	mv	a3,s11
   13b08:	000d0513          	mv	a0,s10
   13b0c:	000d8593          	mv	a1,s11
   13b10:	74d110ef          	jal	ra,25a5c <__unorddf2>
   13b14:	00050a63          	beqz	a0,13b28 <__svfscanf_r+0x133c>
   13b18:	00000513          	li	a0,0
   13b1c:	521040ef          	jal	ra,1883c <nanf>
   13b20:	00ac2023          	sw	a0,0(s8)
   13b24:	c84ff06f          	j	12fa8 <__svfscanf_r+0x7bc>
   13b28:	000d0513          	mv	a0,s10
   13b2c:	000d8593          	mv	a1,s11
   13b30:	4f0150ef          	jal	ra,29020 <__truncdfsf2>
   13b34:	fedff06f          	j	13b20 <__svfscanf_r+0x1334>

00013b38 <vfscanf>:
   13b38:	fe010113          	addi	sp,sp,-32
   13b3c:	00812c23          	sw	s0,24(sp)
   13b40:	8681a403          	lw	s0,-1944(gp) # 2ba20 <_impure_ptr>
   13b44:	00912a23          	sw	s1,20(sp)
   13b48:	00112e23          	sw	ra,28(sp)
   13b4c:	00050493          	mv	s1,a0
   13b50:	00060693          	mv	a3,a2
   13b54:	02040263          	beqz	s0,13b78 <vfscanf+0x40>
   13b58:	03842783          	lw	a5,56(s0)
   13b5c:	00079e63          	bnez	a5,13b78 <vfscanf+0x40>
   13b60:	00040513          	mv	a0,s0
   13b64:	00b12423          	sw	a1,8(sp)
   13b68:	00c12623          	sw	a2,12(sp)
   13b6c:	6fc000ef          	jal	ra,14268 <__sinit>
   13b70:	00c12683          	lw	a3,12(sp)
   13b74:	00812583          	lw	a1,8(sp)
   13b78:	00040513          	mv	a0,s0
   13b7c:	01812403          	lw	s0,24(sp)
   13b80:	01c12083          	lw	ra,28(sp)
   13b84:	00058613          	mv	a2,a1
   13b88:	00048593          	mv	a1,s1
   13b8c:	01412483          	lw	s1,20(sp)
   13b90:	02010113          	addi	sp,sp,32
   13b94:	c59fe06f          	j	127ec <__svfscanf_r>

00013b98 <__svfscanf>:
   13b98:	00060693          	mv	a3,a2
   13b9c:	00058613          	mv	a2,a1
   13ba0:	00050593          	mv	a1,a0
   13ba4:	8681a503          	lw	a0,-1944(gp) # 2ba20 <_impure_ptr>
   13ba8:	c45fe06f          	j	127ec <__svfscanf_r>

00013bac <_vfscanf_r>:
   13bac:	fe010113          	addi	sp,sp,-32
   13bb0:	00812c23          	sw	s0,24(sp)
   13bb4:	00112e23          	sw	ra,28(sp)
   13bb8:	00050413          	mv	s0,a0
   13bbc:	02050463          	beqz	a0,13be4 <_vfscanf_r+0x38>
   13bc0:	03852783          	lw	a5,56(a0)
   13bc4:	02079063          	bnez	a5,13be4 <_vfscanf_r+0x38>
   13bc8:	00d12623          	sw	a3,12(sp)
   13bcc:	00c12423          	sw	a2,8(sp)
   13bd0:	00b12223          	sw	a1,4(sp)
   13bd4:	694000ef          	jal	ra,14268 <__sinit>
   13bd8:	00c12683          	lw	a3,12(sp)
   13bdc:	00812603          	lw	a2,8(sp)
   13be0:	00412583          	lw	a1,4(sp)
   13be4:	00040513          	mv	a0,s0
   13be8:	01812403          	lw	s0,24(sp)
   13bec:	01c12083          	lw	ra,28(sp)
   13bf0:	02010113          	addi	sp,sp,32
   13bf4:	bf9fe06f          	j	127ec <__svfscanf_r>

00013bf8 <__swsetup_r>:
   13bf8:	ff010113          	addi	sp,sp,-16
   13bfc:	00912223          	sw	s1,4(sp)
   13c00:	00050493          	mv	s1,a0
   13c04:	8681a503          	lw	a0,-1944(gp) # 2ba20 <_impure_ptr>
   13c08:	00812423          	sw	s0,8(sp)
   13c0c:	00112623          	sw	ra,12(sp)
   13c10:	00058413          	mv	s0,a1
   13c14:	00050863          	beqz	a0,13c24 <__swsetup_r+0x2c>
   13c18:	03852783          	lw	a5,56(a0)
   13c1c:	00079463          	bnez	a5,13c24 <__swsetup_r+0x2c>
   13c20:	648000ef          	jal	ra,14268 <__sinit>
   13c24:	00c41703          	lh	a4,12(s0)
   13c28:	01071793          	slli	a5,a4,0x10
   13c2c:	0107d793          	srli	a5,a5,0x10
   13c30:	0087f693          	andi	a3,a5,8
   13c34:	06069e63          	bnez	a3,13cb0 <__swsetup_r+0xb8>
   13c38:	0107f693          	andi	a3,a5,16
   13c3c:	02069663          	bnez	a3,13c68 <__swsetup_r+0x70>
   13c40:	00900793          	li	a5,9
   13c44:	00f4a023          	sw	a5,0(s1)
   13c48:	04076713          	ori	a4,a4,64
   13c4c:	00e41623          	sh	a4,12(s0)
   13c50:	fff00513          	li	a0,-1
   13c54:	00c12083          	lw	ra,12(sp)
   13c58:	00812403          	lw	s0,8(sp)
   13c5c:	00412483          	lw	s1,4(sp)
   13c60:	01010113          	addi	sp,sp,16
   13c64:	00008067          	ret
   13c68:	0047f793          	andi	a5,a5,4
   13c6c:	02078c63          	beqz	a5,13ca4 <__swsetup_r+0xac>
   13c70:	03042583          	lw	a1,48(s0)
   13c74:	00058c63          	beqz	a1,13c8c <__swsetup_r+0x94>
   13c78:	04040793          	addi	a5,s0,64
   13c7c:	00f58663          	beq	a1,a5,13c88 <__swsetup_r+0x90>
   13c80:	00048513          	mv	a0,s1
   13c84:	1f1000ef          	jal	ra,14674 <_free_r>
   13c88:	02042823          	sw	zero,48(s0)
   13c8c:	00c45783          	lhu	a5,12(s0)
   13c90:	00042223          	sw	zero,4(s0)
   13c94:	fdb7f793          	andi	a5,a5,-37
   13c98:	00f41623          	sh	a5,12(s0)
   13c9c:	01042783          	lw	a5,16(s0)
   13ca0:	00f42023          	sw	a5,0(s0)
   13ca4:	00c45783          	lhu	a5,12(s0)
   13ca8:	0087e793          	ori	a5,a5,8
   13cac:	00f41623          	sh	a5,12(s0)
   13cb0:	01042783          	lw	a5,16(s0)
   13cb4:	02079063          	bnez	a5,13cd4 <__swsetup_r+0xdc>
   13cb8:	00c45783          	lhu	a5,12(s0)
   13cbc:	20000713          	li	a4,512
   13cc0:	2807f793          	andi	a5,a5,640
   13cc4:	00e78863          	beq	a5,a4,13cd4 <__swsetup_r+0xdc>
   13cc8:	00040593          	mv	a1,s0
   13ccc:	00048513          	mv	a0,s1
   13cd0:	7bd020ef          	jal	ra,16c8c <__smakebuf_r>
   13cd4:	00c45783          	lhu	a5,12(s0)
   13cd8:	0017f713          	andi	a4,a5,1
   13cdc:	02070c63          	beqz	a4,13d14 <__swsetup_r+0x11c>
   13ce0:	01442783          	lw	a5,20(s0)
   13ce4:	00042423          	sw	zero,8(s0)
   13ce8:	40f007b3          	neg	a5,a5
   13cec:	00f42c23          	sw	a5,24(s0)
   13cf0:	01042783          	lw	a5,16(s0)
   13cf4:	00000513          	li	a0,0
   13cf8:	f4079ee3          	bnez	a5,13c54 <__swsetup_r+0x5c>
   13cfc:	00c41783          	lh	a5,12(s0)
   13d00:	0807f713          	andi	a4,a5,128
   13d04:	f40708e3          	beqz	a4,13c54 <__swsetup_r+0x5c>
   13d08:	0407e793          	ori	a5,a5,64
   13d0c:	00f41623          	sh	a5,12(s0)
   13d10:	f41ff06f          	j	13c50 <__swsetup_r+0x58>
   13d14:	0027f793          	andi	a5,a5,2
   13d18:	00000713          	li	a4,0
   13d1c:	00079463          	bnez	a5,13d24 <__swsetup_r+0x12c>
   13d20:	01442703          	lw	a4,20(s0)
   13d24:	00e42423          	sw	a4,8(s0)
   13d28:	fc9ff06f          	j	13cf0 <__swsetup_r+0xf8>
   13d2c:	0000                	unimp
	...

00013d30 <__register_exitproc>:
   13d30:	8641a703          	lw	a4,-1948(gp) # 2ba1c <_global_impure_ptr>
   13d34:	00050313          	mv	t1,a0
   13d38:	14872783          	lw	a5,328(a4)
   13d3c:	00079663          	bnez	a5,13d48 <__register_exitproc+0x18>
   13d40:	14c70793          	addi	a5,a4,332
   13d44:	14f72423          	sw	a5,328(a4)
   13d48:	0047a703          	lw	a4,4(a5)
   13d4c:	01f00813          	li	a6,31
   13d50:	fff00513          	li	a0,-1
   13d54:	04e84a63          	blt	a6,a4,13da8 <__register_exitproc+0x78>
   13d58:	00271893          	slli	a7,a4,0x2
   13d5c:	02030c63          	beqz	t1,13d94 <__register_exitproc+0x64>
   13d60:	01178533          	add	a0,a5,a7
   13d64:	08c52423          	sw	a2,136(a0)
   13d68:	1887a803          	lw	a6,392(a5)
   13d6c:	00100613          	li	a2,1
   13d70:	00e61633          	sll	a2,a2,a4
   13d74:	00c86833          	or	a6,a6,a2
   13d78:	1907a423          	sw	a6,392(a5)
   13d7c:	10d52423          	sw	a3,264(a0)
   13d80:	00200693          	li	a3,2
   13d84:	00d31863          	bne	t1,a3,13d94 <__register_exitproc+0x64>
   13d88:	18c7a683          	lw	a3,396(a5)
   13d8c:	00c6e633          	or	a2,a3,a2
   13d90:	18c7a623          	sw	a2,396(a5)
   13d94:	00170713          	addi	a4,a4,1
   13d98:	00e7a223          	sw	a4,4(a5)
   13d9c:	011787b3          	add	a5,a5,a7
   13da0:	00b7a423          	sw	a1,8(a5)
   13da4:	00000513          	li	a0,0
   13da8:	00008067          	ret
   13dac:	0000                	unimp
	...

00013db0 <__call_exitprocs>:
   13db0:	fd010113          	addi	sp,sp,-48
   13db4:	01312e23          	sw	s3,28(sp)
   13db8:	8641a983          	lw	s3,-1948(gp) # 2ba1c <_global_impure_ptr>
   13dbc:	01412c23          	sw	s4,24(sp)
   13dc0:	01512a23          	sw	s5,20(sp)
   13dc4:	01612823          	sw	s6,16(sp)
   13dc8:	02112623          	sw	ra,44(sp)
   13dcc:	02812423          	sw	s0,40(sp)
   13dd0:	02912223          	sw	s1,36(sp)
   13dd4:	03212023          	sw	s2,32(sp)
   13dd8:	01712623          	sw	s7,12(sp)
   13ddc:	00050a93          	mv	s5,a0
   13de0:	00058a13          	mv	s4,a1
   13de4:	00100b13          	li	s6,1
   13de8:	1489a483          	lw	s1,328(s3)
   13dec:	00048c63          	beqz	s1,13e04 <__call_exitprocs+0x54>
   13df0:	0044a403          	lw	s0,4(s1)
   13df4:	fff40913          	addi	s2,s0,-1
   13df8:	00241413          	slli	s0,s0,0x2
   13dfc:	00848433          	add	s0,s1,s0
   13e00:	02095863          	bgez	s2,13e30 <__call_exitprocs+0x80>
   13e04:	02c12083          	lw	ra,44(sp)
   13e08:	02812403          	lw	s0,40(sp)
   13e0c:	02412483          	lw	s1,36(sp)
   13e10:	02012903          	lw	s2,32(sp)
   13e14:	01c12983          	lw	s3,28(sp)
   13e18:	01812a03          	lw	s4,24(sp)
   13e1c:	01412a83          	lw	s5,20(sp)
   13e20:	01012b03          	lw	s6,16(sp)
   13e24:	00c12b83          	lw	s7,12(sp)
   13e28:	03010113          	addi	sp,sp,48
   13e2c:	00008067          	ret
   13e30:	000a0c63          	beqz	s4,13e48 <__call_exitprocs+0x98>
   13e34:	10442783          	lw	a5,260(s0)
   13e38:	01478863          	beq	a5,s4,13e48 <__call_exitprocs+0x98>
   13e3c:	fff90913          	addi	s2,s2,-1
   13e40:	ffc40413          	addi	s0,s0,-4
   13e44:	fbdff06f          	j	13e00 <__call_exitprocs+0x50>
   13e48:	0044a703          	lw	a4,4(s1)
   13e4c:	00442783          	lw	a5,4(s0)
   13e50:	fff70713          	addi	a4,a4,-1
   13e54:	03271c63          	bne	a4,s2,13e8c <__call_exitprocs+0xdc>
   13e58:	0124a223          	sw	s2,4(s1)
   13e5c:	fe0780e3          	beqz	a5,13e3c <__call_exitprocs+0x8c>
   13e60:	1884a683          	lw	a3,392(s1)
   13e64:	012b1733          	sll	a4,s6,s2
   13e68:	0044ab83          	lw	s7,4(s1)
   13e6c:	00d776b3          	and	a3,a4,a3
   13e70:	02069263          	bnez	a3,13e94 <__call_exitprocs+0xe4>
   13e74:	000780e7          	jalr	a5
   13e78:	0044a703          	lw	a4,4(s1)
   13e7c:	1489a783          	lw	a5,328(s3)
   13e80:	f77714e3          	bne	a4,s7,13de8 <__call_exitprocs+0x38>
   13e84:	faf48ce3          	beq	s1,a5,13e3c <__call_exitprocs+0x8c>
   13e88:	f61ff06f          	j	13de8 <__call_exitprocs+0x38>
   13e8c:	00042223          	sw	zero,4(s0)
   13e90:	fcdff06f          	j	13e5c <__call_exitprocs+0xac>
   13e94:	18c4a683          	lw	a3,396(s1)
   13e98:	08442583          	lw	a1,132(s0)
   13e9c:	00d77733          	and	a4,a4,a3
   13ea0:	00071863          	bnez	a4,13eb0 <__call_exitprocs+0x100>
   13ea4:	000a8513          	mv	a0,s5
   13ea8:	000780e7          	jalr	a5
   13eac:	fcdff06f          	j	13e78 <__call_exitprocs+0xc8>
   13eb0:	00058513          	mv	a0,a1
   13eb4:	000780e7          	jalr	a5
   13eb8:	fc1ff06f          	j	13e78 <__call_exitprocs+0xc8>
   13ebc:	0000                	unimp
	...

00013ec0 <__sflush_r>:
   13ec0:	00c59783          	lh	a5,12(a1)
   13ec4:	fe010113          	addi	sp,sp,-32
   13ec8:	00812c23          	sw	s0,24(sp)
   13ecc:	01079713          	slli	a4,a5,0x10
   13ed0:	01075713          	srli	a4,a4,0x10
   13ed4:	00912a23          	sw	s1,20(sp)
   13ed8:	00112e23          	sw	ra,28(sp)
   13edc:	01212823          	sw	s2,16(sp)
   13ee0:	01312623          	sw	s3,12(sp)
   13ee4:	00877693          	andi	a3,a4,8
   13ee8:	00050493          	mv	s1,a0
   13eec:	00058413          	mv	s0,a1
   13ef0:	16069c63          	bnez	a3,14068 <__sflush_r+0x1a8>
   13ef4:	00001737          	lui	a4,0x1
   13ef8:	80070713          	addi	a4,a4,-2048 # 800 <_start-0xf874>
   13efc:	00e7e7b3          	or	a5,a5,a4
   13f00:	0045a703          	lw	a4,4(a1)
   13f04:	00f59623          	sh	a5,12(a1)
   13f08:	02e04663          	bgtz	a4,13f34 <__sflush_r+0x74>
   13f0c:	03c5a703          	lw	a4,60(a1)
   13f10:	02e04263          	bgtz	a4,13f34 <__sflush_r+0x74>
   13f14:	00000513          	li	a0,0
   13f18:	01c12083          	lw	ra,28(sp)
   13f1c:	01812403          	lw	s0,24(sp)
   13f20:	01412483          	lw	s1,20(sp)
   13f24:	01012903          	lw	s2,16(sp)
   13f28:	00c12983          	lw	s3,12(sp)
   13f2c:	02010113          	addi	sp,sp,32
   13f30:	00008067          	ret
   13f34:	02842703          	lw	a4,40(s0)
   13f38:	fc070ee3          	beqz	a4,13f14 <__sflush_r+0x54>
   13f3c:	0004a903          	lw	s2,0(s1)
   13f40:	01379693          	slli	a3,a5,0x13
   13f44:	0004a023          	sw	zero,0(s1)
   13f48:	01c42583          	lw	a1,28(s0)
   13f4c:	0c06d863          	bgez	a3,1401c <__sflush_r+0x15c>
   13f50:	05042603          	lw	a2,80(s0)
   13f54:	00c45783          	lhu	a5,12(s0)
   13f58:	0047f793          	andi	a5,a5,4
   13f5c:	00078e63          	beqz	a5,13f78 <__sflush_r+0xb8>
   13f60:	00442783          	lw	a5,4(s0)
   13f64:	40f60633          	sub	a2,a2,a5
   13f68:	03042783          	lw	a5,48(s0)
   13f6c:	00078663          	beqz	a5,13f78 <__sflush_r+0xb8>
   13f70:	03c42783          	lw	a5,60(s0)
   13f74:	40f60633          	sub	a2,a2,a5
   13f78:	02842783          	lw	a5,40(s0)
   13f7c:	01c42583          	lw	a1,28(s0)
   13f80:	00000693          	li	a3,0
   13f84:	00048513          	mv	a0,s1
   13f88:	000780e7          	jalr	a5
   13f8c:	fff00793          	li	a5,-1
   13f90:	00c45683          	lhu	a3,12(s0)
   13f94:	02f51263          	bne	a0,a5,13fb8 <__sflush_r+0xf8>
   13f98:	0004a783          	lw	a5,0(s1)
   13f9c:	01d00713          	li	a4,29
   13fa0:	0af76c63          	bltu	a4,a5,14058 <__sflush_r+0x198>
   13fa4:	20400737          	lui	a4,0x20400
   13fa8:	00170713          	addi	a4,a4,1 # 20400001 <__global_pointer$+0x203d3e49>
   13fac:	00f75733          	srl	a4,a4,a5
   13fb0:	00177713          	andi	a4,a4,1
   13fb4:	0a070263          	beqz	a4,14058 <__sflush_r+0x198>
   13fb8:	fffff7b7          	lui	a5,0xfffff
   13fbc:	7ff78793          	addi	a5,a5,2047 # fffff7ff <__global_pointer$+0xfffd3647>
   13fc0:	01042703          	lw	a4,16(s0)
   13fc4:	00d7f7b3          	and	a5,a5,a3
   13fc8:	01079793          	slli	a5,a5,0x10
   13fcc:	4107d793          	srai	a5,a5,0x10
   13fd0:	00e42023          	sw	a4,0(s0)
   13fd4:	00f41623          	sh	a5,12(s0)
   13fd8:	00042223          	sw	zero,4(s0)
   13fdc:	01379713          	slli	a4,a5,0x13
   13fe0:	00075c63          	bgez	a4,13ff8 <__sflush_r+0x138>
   13fe4:	fff00793          	li	a5,-1
   13fe8:	00f51663          	bne	a0,a5,13ff4 <__sflush_r+0x134>
   13fec:	0004a783          	lw	a5,0(s1)
   13ff0:	00079463          	bnez	a5,13ff8 <__sflush_r+0x138>
   13ff4:	04a42823          	sw	a0,80(s0)
   13ff8:	03042583          	lw	a1,48(s0)
   13ffc:	0124a023          	sw	s2,0(s1)
   14000:	f0058ae3          	beqz	a1,13f14 <__sflush_r+0x54>
   14004:	04040793          	addi	a5,s0,64
   14008:	00f58663          	beq	a1,a5,14014 <__sflush_r+0x154>
   1400c:	00048513          	mv	a0,s1
   14010:	664000ef          	jal	ra,14674 <_free_r>
   14014:	02042823          	sw	zero,48(s0)
   14018:	efdff06f          	j	13f14 <__sflush_r+0x54>
   1401c:	00000613          	li	a2,0
   14020:	00100693          	li	a3,1
   14024:	00048513          	mv	a0,s1
   14028:	000700e7          	jalr	a4
   1402c:	fff00793          	li	a5,-1
   14030:	00050613          	mv	a2,a0
   14034:	f2f510e3          	bne	a0,a5,13f54 <__sflush_r+0x94>
   14038:	0004a783          	lw	a5,0(s1)
   1403c:	f0078ce3          	beqz	a5,13f54 <__sflush_r+0x94>
   14040:	01d00713          	li	a4,29
   14044:	00e78663          	beq	a5,a4,14050 <__sflush_r+0x190>
   14048:	01600713          	li	a4,22
   1404c:	06e79263          	bne	a5,a4,140b0 <__sflush_r+0x1f0>
   14050:	0124a023          	sw	s2,0(s1)
   14054:	ec1ff06f          	j	13f14 <__sflush_r+0x54>
   14058:	0406e793          	ori	a5,a3,64
   1405c:	00f41623          	sh	a5,12(s0)
   14060:	fff00513          	li	a0,-1
   14064:	eb5ff06f          	j	13f18 <__sflush_r+0x58>
   14068:	0105a983          	lw	s3,16(a1)
   1406c:	ea0984e3          	beqz	s3,13f14 <__sflush_r+0x54>
   14070:	0005a903          	lw	s2,0(a1)
   14074:	00377713          	andi	a4,a4,3
   14078:	0135a023          	sw	s3,0(a1)
   1407c:	41390933          	sub	s2,s2,s3
   14080:	00000793          	li	a5,0
   14084:	00071463          	bnez	a4,1408c <__sflush_r+0x1cc>
   14088:	0145a783          	lw	a5,20(a1)
   1408c:	00f42423          	sw	a5,8(s0)
   14090:	e92052e3          	blez	s2,13f14 <__sflush_r+0x54>
   14094:	02442783          	lw	a5,36(s0)
   14098:	01c42583          	lw	a1,28(s0)
   1409c:	00090693          	mv	a3,s2
   140a0:	00098613          	mv	a2,s3
   140a4:	00048513          	mv	a0,s1
   140a8:	000780e7          	jalr	a5
   140ac:	00a04863          	bgtz	a0,140bc <__sflush_r+0x1fc>
   140b0:	00c45783          	lhu	a5,12(s0)
   140b4:	0407e793          	ori	a5,a5,64
   140b8:	fa5ff06f          	j	1405c <__sflush_r+0x19c>
   140bc:	00a989b3          	add	s3,s3,a0
   140c0:	40a90933          	sub	s2,s2,a0
   140c4:	fcdff06f          	j	14090 <__sflush_r+0x1d0>

000140c8 <_fflush_r>:
   140c8:	fe010113          	addi	sp,sp,-32
   140cc:	00812c23          	sw	s0,24(sp)
   140d0:	00112e23          	sw	ra,28(sp)
   140d4:	00050413          	mv	s0,a0
   140d8:	00050c63          	beqz	a0,140f0 <_fflush_r+0x28>
   140dc:	03852783          	lw	a5,56(a0)
   140e0:	00079863          	bnez	a5,140f0 <_fflush_r+0x28>
   140e4:	00b12623          	sw	a1,12(sp)
   140e8:	180000ef          	jal	ra,14268 <__sinit>
   140ec:	00c12583          	lw	a1,12(sp)
   140f0:	00c59783          	lh	a5,12(a1)
   140f4:	00078c63          	beqz	a5,1410c <_fflush_r+0x44>
   140f8:	00040513          	mv	a0,s0
   140fc:	01812403          	lw	s0,24(sp)
   14100:	01c12083          	lw	ra,28(sp)
   14104:	02010113          	addi	sp,sp,32
   14108:	db9ff06f          	j	13ec0 <__sflush_r>
   1410c:	01c12083          	lw	ra,28(sp)
   14110:	01812403          	lw	s0,24(sp)
   14114:	00000513          	li	a0,0
   14118:	02010113          	addi	sp,sp,32
   1411c:	00008067          	ret

00014120 <fflush>:
   14120:	00050593          	mv	a1,a0
   14124:	00051a63          	bnez	a0,14138 <fflush+0x18>
   14128:	8641a503          	lw	a0,-1948(gp) # 2ba1c <_global_impure_ptr>
   1412c:	000145b7          	lui	a1,0x14
   14130:	0c858593          	addi	a1,a1,200 # 140c8 <_fflush_r>
   14134:	03d0006f          	j	14970 <_fwalk_reent>
   14138:	8681a503          	lw	a0,-1944(gp) # 2ba20 <_impure_ptr>
   1413c:	f8dff06f          	j	140c8 <_fflush_r>
   14140:	0000                	unimp
	...

00014144 <__fp_lock>:
   14144:	00000513          	li	a0,0
   14148:	00008067          	ret

0001414c <_cleanup_r>:
   1414c:	0001e5b7          	lui	a1,0x1e
   14150:	1a858593          	addi	a1,a1,424 # 1e1a8 <_fclose_r>
   14154:	01d0006f          	j	14970 <_fwalk_reent>

00014158 <std.isra.0>:
   14158:	ff010113          	addi	sp,sp,-16
   1415c:	00812423          	sw	s0,8(sp)
   14160:	00112623          	sw	ra,12(sp)
   14164:	00050413          	mv	s0,a0
   14168:	00b51623          	sh	a1,12(a0)
   1416c:	00c51723          	sh	a2,14(a0)
   14170:	00052023          	sw	zero,0(a0)
   14174:	00052223          	sw	zero,4(a0)
   14178:	00052423          	sw	zero,8(a0)
   1417c:	06052223          	sw	zero,100(a0)
   14180:	00052823          	sw	zero,16(a0)
   14184:	00052a23          	sw	zero,20(a0)
   14188:	00052c23          	sw	zero,24(a0)
   1418c:	00800613          	li	a2,8
   14190:	00000593          	li	a1,0
   14194:	05c50513          	addi	a0,a0,92
   14198:	b60fc0ef          	jal	ra,104f8 <memset>
   1419c:	000197b7          	lui	a5,0x19
   141a0:	9d878793          	addi	a5,a5,-1576 # 189d8 <__sread>
   141a4:	02f42023          	sw	a5,32(s0)
   141a8:	000197b7          	lui	a5,0x19
   141ac:	a3078793          	addi	a5,a5,-1488 # 18a30 <__swrite>
   141b0:	02f42223          	sw	a5,36(s0)
   141b4:	000197b7          	lui	a5,0x19
   141b8:	ab478793          	addi	a5,a5,-1356 # 18ab4 <__sseek>
   141bc:	02f42423          	sw	a5,40(s0)
   141c0:	000197b7          	lui	a5,0x19
   141c4:	b0c78793          	addi	a5,a5,-1268 # 18b0c <__sclose>
   141c8:	00842e23          	sw	s0,28(s0)
   141cc:	02f42623          	sw	a5,44(s0)
   141d0:	00c12083          	lw	ra,12(sp)
   141d4:	00812403          	lw	s0,8(sp)
   141d8:	01010113          	addi	sp,sp,16
   141dc:	00008067          	ret

000141e0 <__fp_unlock>:
   141e0:	00000513          	li	a0,0
   141e4:	00008067          	ret

000141e8 <__sfmoreglue>:
   141e8:	ff010113          	addi	sp,sp,-16
   141ec:	01212023          	sw	s2,0(sp)
   141f0:	00058913          	mv	s2,a1
   141f4:	00812423          	sw	s0,8(sp)
   141f8:	06800593          	li	a1,104
   141fc:	00050413          	mv	s0,a0
   14200:	fff90513          	addi	a0,s2,-1
   14204:	00112623          	sw	ra,12(sp)
   14208:	00912223          	sw	s1,4(sp)
   1420c:	30c150ef          	jal	ra,29518 <__mulsi3>
   14210:	07450593          	addi	a1,a0,116
   14214:	00050493          	mv	s1,a0
   14218:	00040513          	mv	a0,s0
   1421c:	361020ef          	jal	ra,16d7c <_malloc_r>
   14220:	00050413          	mv	s0,a0
   14224:	02050063          	beqz	a0,14244 <__sfmoreglue+0x5c>
   14228:	00052023          	sw	zero,0(a0)
   1422c:	01252223          	sw	s2,4(a0)
   14230:	00c50513          	addi	a0,a0,12
   14234:	00a42423          	sw	a0,8(s0)
   14238:	06848613          	addi	a2,s1,104
   1423c:	00000593          	li	a1,0
   14240:	ab8fc0ef          	jal	ra,104f8 <memset>
   14244:	00040513          	mv	a0,s0
   14248:	00c12083          	lw	ra,12(sp)
   1424c:	00812403          	lw	s0,8(sp)
   14250:	00412483          	lw	s1,4(sp)
   14254:	00012903          	lw	s2,0(sp)
   14258:	01010113          	addi	sp,sp,16
   1425c:	00008067          	ret

00014260 <_cleanup>:
   14260:	8641a503          	lw	a0,-1948(gp) # 2ba1c <_global_impure_ptr>
   14264:	ee9ff06f          	j	1414c <_cleanup_r>

00014268 <__sinit>:
   14268:	03852783          	lw	a5,56(a0)
   1426c:	06079e63          	bnez	a5,142e8 <__sinit+0x80>
   14270:	ff010113          	addi	sp,sp,-16
   14274:	000147b7          	lui	a5,0x14
   14278:	00112623          	sw	ra,12(sp)
   1427c:	00812423          	sw	s0,8(sp)
   14280:	14c78793          	addi	a5,a5,332 # 1414c <_cleanup_r>
   14284:	02f52e23          	sw	a5,60(a0)
   14288:	00300793          	li	a5,3
   1428c:	2ef52223          	sw	a5,740(a0)
   14290:	2ec50793          	addi	a5,a0,748
   14294:	00050413          	mv	s0,a0
   14298:	2ef52423          	sw	a5,744(a0)
   1429c:	2e052023          	sw	zero,736(a0)
   142a0:	00452503          	lw	a0,4(a0)
   142a4:	00000613          	li	a2,0
   142a8:	00400593          	li	a1,4
   142ac:	eadff0ef          	jal	ra,14158 <std.isra.0>
   142b0:	00842503          	lw	a0,8(s0)
   142b4:	00100613          	li	a2,1
   142b8:	00900593          	li	a1,9
   142bc:	e9dff0ef          	jal	ra,14158 <std.isra.0>
   142c0:	00c42503          	lw	a0,12(s0)
   142c4:	00200613          	li	a2,2
   142c8:	01200593          	li	a1,18
   142cc:	e8dff0ef          	jal	ra,14158 <std.isra.0>
   142d0:	00100793          	li	a5,1
   142d4:	02f42c23          	sw	a5,56(s0)
   142d8:	00c12083          	lw	ra,12(sp)
   142dc:	00812403          	lw	s0,8(sp)
   142e0:	01010113          	addi	sp,sp,16
   142e4:	00008067          	ret
   142e8:	00008067          	ret

000142ec <__sfp>:
   142ec:	ff010113          	addi	sp,sp,-16
   142f0:	00912223          	sw	s1,4(sp)
   142f4:	8641a483          	lw	s1,-1948(gp) # 2ba1c <_global_impure_ptr>
   142f8:	01212023          	sw	s2,0(sp)
   142fc:	00112623          	sw	ra,12(sp)
   14300:	0384a783          	lw	a5,56(s1)
   14304:	00812423          	sw	s0,8(sp)
   14308:	00050913          	mv	s2,a0
   1430c:	00079663          	bnez	a5,14318 <__sfp+0x2c>
   14310:	00048513          	mv	a0,s1
   14314:	f55ff0ef          	jal	ra,14268 <__sinit>
   14318:	2e048493          	addi	s1,s1,736
   1431c:	0084a403          	lw	s0,8(s1)
   14320:	0044a783          	lw	a5,4(s1)
   14324:	fff78793          	addi	a5,a5,-1
   14328:	0007da63          	bgez	a5,1433c <__sfp+0x50>
   1432c:	0004a783          	lw	a5,0(s1)
   14330:	00078e63          	beqz	a5,1434c <__sfp+0x60>
   14334:	0004a483          	lw	s1,0(s1)
   14338:	fe5ff06f          	j	1431c <__sfp+0x30>
   1433c:	00c41703          	lh	a4,12(s0)
   14340:	04070463          	beqz	a4,14388 <__sfp+0x9c>
   14344:	06840413          	addi	s0,s0,104
   14348:	fddff06f          	j	14324 <__sfp+0x38>
   1434c:	00400593          	li	a1,4
   14350:	00090513          	mv	a0,s2
   14354:	e95ff0ef          	jal	ra,141e8 <__sfmoreglue>
   14358:	00a4a023          	sw	a0,0(s1)
   1435c:	fc051ce3          	bnez	a0,14334 <__sfp+0x48>
   14360:	00c00793          	li	a5,12
   14364:	00f92023          	sw	a5,0(s2)
   14368:	00000413          	li	s0,0
   1436c:	00040513          	mv	a0,s0
   14370:	00c12083          	lw	ra,12(sp)
   14374:	00812403          	lw	s0,8(sp)
   14378:	00412483          	lw	s1,4(sp)
   1437c:	00012903          	lw	s2,0(sp)
   14380:	01010113          	addi	sp,sp,16
   14384:	00008067          	ret
   14388:	ffff07b7          	lui	a5,0xffff0
   1438c:	00178793          	addi	a5,a5,1 # ffff0001 <__global_pointer$+0xfffc3e49>
   14390:	06042223          	sw	zero,100(s0)
   14394:	00042023          	sw	zero,0(s0)
   14398:	00042223          	sw	zero,4(s0)
   1439c:	00042423          	sw	zero,8(s0)
   143a0:	00f42623          	sw	a5,12(s0)
   143a4:	00042823          	sw	zero,16(s0)
   143a8:	00042a23          	sw	zero,20(s0)
   143ac:	00042c23          	sw	zero,24(s0)
   143b0:	00800613          	li	a2,8
   143b4:	00000593          	li	a1,0
   143b8:	05c40513          	addi	a0,s0,92
   143bc:	93cfc0ef          	jal	ra,104f8 <memset>
   143c0:	02042823          	sw	zero,48(s0)
   143c4:	02042a23          	sw	zero,52(s0)
   143c8:	04042223          	sw	zero,68(s0)
   143cc:	04042423          	sw	zero,72(s0)
   143d0:	f9dff06f          	j	1436c <__sfp+0x80>

000143d4 <__sfp_lock_acquire>:
   143d4:	00008067          	ret

000143d8 <__sfp_lock_release>:
   143d8:	00008067          	ret

000143dc <__sinit_lock_acquire>:
   143dc:	00008067          	ret

000143e0 <__sinit_lock_release>:
   143e0:	00008067          	ret

000143e4 <__fp_lock_all>:
   143e4:	8681a503          	lw	a0,-1944(gp) # 2ba20 <_impure_ptr>
   143e8:	000145b7          	lui	a1,0x14
   143ec:	14458593          	addi	a1,a1,324 # 14144 <__fp_lock>
   143f0:	4e00006f          	j	148d0 <_fwalk>

000143f4 <__fp_unlock_all>:
   143f4:	8681a503          	lw	a0,-1944(gp) # 2ba20 <_impure_ptr>
   143f8:	000145b7          	lui	a1,0x14
   143fc:	1e058593          	addi	a1,a1,480 # 141e0 <__fp_unlock>
   14400:	4d00006f          	j	148d0 <_fwalk>

00014404 <_fread_r>:
   14404:	fd010113          	addi	sp,sp,-48
   14408:	01412c23          	sw	s4,24(sp)
   1440c:	01512a23          	sw	s5,20(sp)
   14410:	00058a13          	mv	s4,a1
   14414:	00050a93          	mv	s5,a0
   14418:	00060593          	mv	a1,a2
   1441c:	00068513          	mv	a0,a3
   14420:	02812423          	sw	s0,40(sp)
   14424:	03212023          	sw	s2,32(sp)
   14428:	01612823          	sw	s6,16(sp)
   1442c:	01712623          	sw	s7,12(sp)
   14430:	02112623          	sw	ra,44(sp)
   14434:	02912223          	sw	s1,36(sp)
   14438:	01312e23          	sw	s3,28(sp)
   1443c:	00060b93          	mv	s7,a2
   14440:	00068b13          	mv	s6,a3
   14444:	00070413          	mv	s0,a4
   14448:	0d0150ef          	jal	ra,29518 <__mulsi3>
   1444c:	00050913          	mv	s2,a0
   14450:	0c050663          	beqz	a0,1451c <_fread_r+0x118>
   14454:	000a8a63          	beqz	s5,14468 <_fread_r+0x64>
   14458:	038aa783          	lw	a5,56(s5)
   1445c:	00079663          	bnez	a5,14468 <_fread_r+0x64>
   14460:	000a8513          	mv	a0,s5
   14464:	e05ff0ef          	jal	ra,14268 <__sinit>
   14468:	00c41783          	lh	a5,12(s0)
   1446c:	01279713          	slli	a4,a5,0x12
   14470:	02074263          	bltz	a4,14494 <_fread_r+0x90>
   14474:	000026b7          	lui	a3,0x2
   14478:	06442703          	lw	a4,100(s0)
   1447c:	00d7e7b3          	or	a5,a5,a3
   14480:	00f41623          	sh	a5,12(s0)
   14484:	ffffe7b7          	lui	a5,0xffffe
   14488:	fff78793          	addi	a5,a5,-1 # ffffdfff <__global_pointer$+0xfffd1e47>
   1448c:	00f777b3          	and	a5,a4,a5
   14490:	06f42223          	sw	a5,100(s0)
   14494:	00442783          	lw	a5,4(s0)
   14498:	0007d463          	bgez	a5,144a0 <_fread_r+0x9c>
   1449c:	00042223          	sw	zero,4(s0)
   144a0:	00090493          	mv	s1,s2
   144a4:	00442983          	lw	s3,4(s0)
   144a8:	00042583          	lw	a1,0(s0)
   144ac:	0299e863          	bltu	s3,s1,144dc <_fread_r+0xd8>
   144b0:	00048613          	mv	a2,s1
   144b4:	000a0513          	mv	a0,s4
   144b8:	054030ef          	jal	ra,1750c <memcpy>
   144bc:	00442783          	lw	a5,4(s0)
   144c0:	000b0913          	mv	s2,s6
   144c4:	409787b3          	sub	a5,a5,s1
   144c8:	00f42223          	sw	a5,4(s0)
   144cc:	00042783          	lw	a5,0(s0)
   144d0:	009784b3          	add	s1,a5,s1
   144d4:	00942023          	sw	s1,0(s0)
   144d8:	0440006f          	j	1451c <_fread_r+0x118>
   144dc:	000a0513          	mv	a0,s4
   144e0:	00098613          	mv	a2,s3
   144e4:	028030ef          	jal	ra,1750c <memcpy>
   144e8:	00042783          	lw	a5,0(s0)
   144ec:	00040593          	mv	a1,s0
   144f0:	000a8513          	mv	a0,s5
   144f4:	013787b3          	add	a5,a5,s3
   144f8:	00f42023          	sw	a5,0(s0)
   144fc:	013a0a33          	add	s4,s4,s3
   14500:	413484b3          	sub	s1,s1,s3
   14504:	06c040ef          	jal	ra,18570 <__srefill_r>
   14508:	f8050ee3          	beqz	a0,144a4 <_fread_r+0xa0>
   1450c:	40990533          	sub	a0,s2,s1
   14510:	000b8593          	mv	a1,s7
   14514:	110150ef          	jal	ra,29624 <__udivsi3>
   14518:	00050913          	mv	s2,a0
   1451c:	02c12083          	lw	ra,44(sp)
   14520:	02812403          	lw	s0,40(sp)
   14524:	00090513          	mv	a0,s2
   14528:	02412483          	lw	s1,36(sp)
   1452c:	02012903          	lw	s2,32(sp)
   14530:	01c12983          	lw	s3,28(sp)
   14534:	01812a03          	lw	s4,24(sp)
   14538:	01412a83          	lw	s5,20(sp)
   1453c:	01012b03          	lw	s6,16(sp)
   14540:	00c12b83          	lw	s7,12(sp)
   14544:	03010113          	addi	sp,sp,48
   14548:	00008067          	ret

0001454c <fread>:
   1454c:	00068713          	mv	a4,a3
   14550:	00060693          	mv	a3,a2
   14554:	00058613          	mv	a2,a1
   14558:	00050593          	mv	a1,a0
   1455c:	8681a503          	lw	a0,-1944(gp) # 2ba20 <_impure_ptr>
   14560:	ea5ff06f          	j	14404 <_fread_r>

00014564 <_malloc_trim_r>:
   14564:	fd010113          	addi	sp,sp,-48
   14568:	03212023          	sw	s2,32(sp)
   1456c:	0002b937          	lui	s2,0x2b
   14570:	02812423          	sw	s0,40(sp)
   14574:	02912223          	sw	s1,36(sp)
   14578:	01312e23          	sw	s3,28(sp)
   1457c:	00b12623          	sw	a1,12(sp)
   14580:	02112623          	sw	ra,44(sp)
   14584:	00050993          	mv	s3,a0
   14588:	59c90913          	addi	s2,s2,1436 # 2b59c <__malloc_av_>
   1458c:	06c030ef          	jal	ra,175f8 <__malloc_lock>
   14590:	00892783          	lw	a5,8(s2)
   14594:	00c12583          	lw	a1,12(sp)
   14598:	0047a483          	lw	s1,4(a5)
   1459c:	000017b7          	lui	a5,0x1
   145a0:	fef78413          	addi	s0,a5,-17 # fef <_start-0xf085>
   145a4:	ffc4f493          	andi	s1,s1,-4
   145a8:	40b40433          	sub	s0,s0,a1
   145ac:	00940433          	add	s0,s0,s1
   145b0:	00c45413          	srli	s0,s0,0xc
   145b4:	fff40413          	addi	s0,s0,-1
   145b8:	00c41413          	slli	s0,s0,0xc
   145bc:	02f45663          	ble	a5,s0,145e8 <_malloc_trim_r+0x84>
   145c0:	00098513          	mv	a0,s3
   145c4:	038030ef          	jal	ra,175fc <__malloc_unlock>
   145c8:	00000513          	li	a0,0
   145cc:	02c12083          	lw	ra,44(sp)
   145d0:	02812403          	lw	s0,40(sp)
   145d4:	02412483          	lw	s1,36(sp)
   145d8:	02012903          	lw	s2,32(sp)
   145dc:	01c12983          	lw	s3,28(sp)
   145e0:	03010113          	addi	sp,sp,48
   145e4:	00008067          	ret
   145e8:	00000593          	li	a1,0
   145ec:	00098513          	mv	a0,s3
   145f0:	150040ef          	jal	ra,18740 <_sbrk_r>
   145f4:	00892783          	lw	a5,8(s2)
   145f8:	009787b3          	add	a5,a5,s1
   145fc:	fcf512e3          	bne	a0,a5,145c0 <_malloc_trim_r+0x5c>
   14600:	408005b3          	neg	a1,s0
   14604:	00098513          	mv	a0,s3
   14608:	138040ef          	jal	ra,18740 <_sbrk_r>
   1460c:	fff00793          	li	a5,-1
   14610:	02f51c63          	bne	a0,a5,14648 <_malloc_trim_r+0xe4>
   14614:	00000593          	li	a1,0
   14618:	00098513          	mv	a0,s3
   1461c:	124040ef          	jal	ra,18740 <_sbrk_r>
   14620:	00892703          	lw	a4,8(s2)
   14624:	00f00693          	li	a3,15
   14628:	40e507b3          	sub	a5,a0,a4
   1462c:	f8f6dae3          	ble	a5,a3,145c0 <_malloc_trim_r+0x5c>
   14630:	86c1a683          	lw	a3,-1940(gp) # 2ba24 <__malloc_sbrk_base>
   14634:	0017e793          	ori	a5,a5,1
   14638:	00f72223          	sw	a5,4(a4)
   1463c:	40d50533          	sub	a0,a0,a3
   14640:	8aa1a623          	sw	a0,-1876(gp) # 2ba64 <__malloc_current_mallinfo>
   14644:	f7dff06f          	j	145c0 <_malloc_trim_r+0x5c>
   14648:	00892783          	lw	a5,8(s2)
   1464c:	408484b3          	sub	s1,s1,s0
   14650:	0014e493          	ori	s1,s1,1
   14654:	0097a223          	sw	s1,4(a5)
   14658:	8ac1a783          	lw	a5,-1876(gp) # 2ba64 <__malloc_current_mallinfo>
   1465c:	00098513          	mv	a0,s3
   14660:	40878433          	sub	s0,a5,s0
   14664:	8a81a623          	sw	s0,-1876(gp) # 2ba64 <__malloc_current_mallinfo>
   14668:	795020ef          	jal	ra,175fc <__malloc_unlock>
   1466c:	00100513          	li	a0,1
   14670:	f5dff06f          	j	145cc <_malloc_trim_r+0x68>

00014674 <_free_r>:
   14674:	24058c63          	beqz	a1,148cc <_free_r+0x258>
   14678:	ff010113          	addi	sp,sp,-16
   1467c:	00812423          	sw	s0,8(sp)
   14680:	00912223          	sw	s1,4(sp)
   14684:	00050413          	mv	s0,a0
   14688:	00058493          	mv	s1,a1
   1468c:	00112623          	sw	ra,12(sp)
   14690:	769020ef          	jal	ra,175f8 <__malloc_lock>
   14694:	ffc4a503          	lw	a0,-4(s1)
   14698:	0002b637          	lui	a2,0x2b
   1469c:	ff848693          	addi	a3,s1,-8
   146a0:	ffe57793          	andi	a5,a0,-2
   146a4:	59c60813          	addi	a6,a2,1436 # 2b59c <__malloc_av_>
   146a8:	00f685b3          	add	a1,a3,a5
   146ac:	0045a703          	lw	a4,4(a1)
   146b0:	00882803          	lw	a6,8(a6)
   146b4:	59c60613          	addi	a2,a2,1436
   146b8:	ffc77713          	andi	a4,a4,-4
   146bc:	00157513          	andi	a0,a0,1
   146c0:	06b81063          	bne	a6,a1,14720 <_free_r+0xac>
   146c4:	00e787b3          	add	a5,a5,a4
   146c8:	02051063          	bnez	a0,146e8 <_free_r+0x74>
   146cc:	ff84a703          	lw	a4,-8(s1)
   146d0:	40e686b3          	sub	a3,a3,a4
   146d4:	0086a583          	lw	a1,8(a3) # 2008 <_start-0xe06c>
   146d8:	00e787b3          	add	a5,a5,a4
   146dc:	00c6a703          	lw	a4,12(a3)
   146e0:	00e5a623          	sw	a4,12(a1)
   146e4:	00b72423          	sw	a1,8(a4)
   146e8:	0017e713          	ori	a4,a5,1
   146ec:	00e6a223          	sw	a4,4(a3)
   146f0:	8701a703          	lw	a4,-1936(gp) # 2ba28 <__malloc_trim_threshold>
   146f4:	00d62423          	sw	a3,8(a2)
   146f8:	00e7e863          	bltu	a5,a4,14708 <_free_r+0x94>
   146fc:	8801a583          	lw	a1,-1920(gp) # 2ba38 <__malloc_top_pad>
   14700:	00040513          	mv	a0,s0
   14704:	e61ff0ef          	jal	ra,14564 <_malloc_trim_r>
   14708:	00040513          	mv	a0,s0
   1470c:	00812403          	lw	s0,8(sp)
   14710:	00c12083          	lw	ra,12(sp)
   14714:	00412483          	lw	s1,4(sp)
   14718:	01010113          	addi	sp,sp,16
   1471c:	6e10206f          	j	175fc <__malloc_unlock>
   14720:	00e5a223          	sw	a4,4(a1)
   14724:	00000813          	li	a6,0
   14728:	02051663          	bnez	a0,14754 <_free_r+0xe0>
   1472c:	ff84a503          	lw	a0,-8(s1)
   14730:	0002b8b7          	lui	a7,0x2b
   14734:	5a488893          	addi	a7,a7,1444 # 2b5a4 <__malloc_av_+0x8>
   14738:	40a686b3          	sub	a3,a3,a0
   1473c:	00a787b3          	add	a5,a5,a0
   14740:	0086a503          	lw	a0,8(a3)
   14744:	0b150663          	beq	a0,a7,147f0 <_free_r+0x17c>
   14748:	00c6a883          	lw	a7,12(a3)
   1474c:	01152623          	sw	a7,12(a0)
   14750:	00a8a423          	sw	a0,8(a7)
   14754:	00e58533          	add	a0,a1,a4
   14758:	00452503          	lw	a0,4(a0)
   1475c:	00157513          	andi	a0,a0,1
   14760:	02051863          	bnez	a0,14790 <_free_r+0x11c>
   14764:	00e787b3          	add	a5,a5,a4
   14768:	0085a703          	lw	a4,8(a1)
   1476c:	08081663          	bnez	a6,147f8 <_free_r+0x184>
   14770:	0002b537          	lui	a0,0x2b
   14774:	5a450513          	addi	a0,a0,1444 # 2b5a4 <__malloc_av_+0x8>
   14778:	08a71063          	bne	a4,a0,147f8 <_free_r+0x184>
   1477c:	00d62a23          	sw	a3,20(a2)
   14780:	00d62823          	sw	a3,16(a2)
   14784:	00e6a623          	sw	a4,12(a3)
   14788:	00e6a423          	sw	a4,8(a3)
   1478c:	00100813          	li	a6,1
   14790:	0017e713          	ori	a4,a5,1
   14794:	00e6a223          	sw	a4,4(a3)
   14798:	00f68733          	add	a4,a3,a5
   1479c:	00f72023          	sw	a5,0(a4)
   147a0:	f60814e3          	bnez	a6,14708 <_free_r+0x94>
   147a4:	1ff00713          	li	a4,511
   147a8:	06f76063          	bltu	a4,a5,14808 <_free_r+0x194>
   147ac:	0037d793          	srli	a5,a5,0x3
   147b0:	4027d593          	srai	a1,a5,0x2
   147b4:	00100713          	li	a4,1
   147b8:	00b71733          	sll	a4,a4,a1
   147bc:	00462583          	lw	a1,4(a2)
   147c0:	00178793          	addi	a5,a5,1
   147c4:	00379793          	slli	a5,a5,0x3
   147c8:	00f607b3          	add	a5,a2,a5
   147cc:	00b76733          	or	a4,a4,a1
   147d0:	00e62223          	sw	a4,4(a2)
   147d4:	0007a703          	lw	a4,0(a5)
   147d8:	ff878613          	addi	a2,a5,-8
   147dc:	00c6a623          	sw	a2,12(a3)
   147e0:	00e6a423          	sw	a4,8(a3)
   147e4:	00d7a023          	sw	a3,0(a5)
   147e8:	00d72623          	sw	a3,12(a4)
   147ec:	f1dff06f          	j	14708 <_free_r+0x94>
   147f0:	00100813          	li	a6,1
   147f4:	f61ff06f          	j	14754 <_free_r+0xe0>
   147f8:	00c5a583          	lw	a1,12(a1)
   147fc:	00b72623          	sw	a1,12(a4)
   14800:	00e5a423          	sw	a4,8(a1)
   14804:	f8dff06f          	j	14790 <_free_r+0x11c>
   14808:	0097d593          	srli	a1,a5,0x9
   1480c:	00400713          	li	a4,4
   14810:	04b76863          	bltu	a4,a1,14860 <_free_r+0x1ec>
   14814:	0067d713          	srli	a4,a5,0x6
   14818:	03870713          	addi	a4,a4,56
   1481c:	00170593          	addi	a1,a4,1
   14820:	00359593          	slli	a1,a1,0x3
   14824:	00b605b3          	add	a1,a2,a1
   14828:	ff858513          	addi	a0,a1,-8
   1482c:	0005a583          	lw	a1,0(a1)
   14830:	08b51463          	bne	a0,a1,148b8 <_free_r+0x244>
   14834:	00100793          	li	a5,1
   14838:	40275713          	srai	a4,a4,0x2
   1483c:	00e79733          	sll	a4,a5,a4
   14840:	00462783          	lw	a5,4(a2)
   14844:	00f76733          	or	a4,a4,a5
   14848:	00e62223          	sw	a4,4(a2)
   1484c:	00a6a623          	sw	a0,12(a3)
   14850:	00b6a423          	sw	a1,8(a3)
   14854:	00d52423          	sw	a3,8(a0)
   14858:	00d5a623          	sw	a3,12(a1)
   1485c:	eadff06f          	j	14708 <_free_r+0x94>
   14860:	01400713          	li	a4,20
   14864:	00b76663          	bltu	a4,a1,14870 <_free_r+0x1fc>
   14868:	05b58713          	addi	a4,a1,91
   1486c:	fb1ff06f          	j	1481c <_free_r+0x1a8>
   14870:	05400713          	li	a4,84
   14874:	00b76863          	bltu	a4,a1,14884 <_free_r+0x210>
   14878:	00c7d713          	srli	a4,a5,0xc
   1487c:	06e70713          	addi	a4,a4,110
   14880:	f9dff06f          	j	1481c <_free_r+0x1a8>
   14884:	15400713          	li	a4,340
   14888:	00b76863          	bltu	a4,a1,14898 <_free_r+0x224>
   1488c:	00f7d713          	srli	a4,a5,0xf
   14890:	07770713          	addi	a4,a4,119
   14894:	f89ff06f          	j	1481c <_free_r+0x1a8>
   14898:	55400513          	li	a0,1364
   1489c:	07e00713          	li	a4,126
   148a0:	f6b56ee3          	bltu	a0,a1,1481c <_free_r+0x1a8>
   148a4:	0127d713          	srli	a4,a5,0x12
   148a8:	07c70713          	addi	a4,a4,124
   148ac:	f71ff06f          	j	1481c <_free_r+0x1a8>
   148b0:	0085a583          	lw	a1,8(a1)
   148b4:	00b50863          	beq	a0,a1,148c4 <_free_r+0x250>
   148b8:	0045a703          	lw	a4,4(a1)
   148bc:	ffc77713          	andi	a4,a4,-4
   148c0:	fee7e8e3          	bltu	a5,a4,148b0 <_free_r+0x23c>
   148c4:	00c5a503          	lw	a0,12(a1)
   148c8:	f85ff06f          	j	1484c <_free_r+0x1d8>
   148cc:	00008067          	ret

000148d0 <_fwalk>:
   148d0:	fd010113          	addi	sp,sp,-48
   148d4:	02812423          	sw	s0,40(sp)
   148d8:	03212023          	sw	s2,32(sp)
   148dc:	01412c23          	sw	s4,24(sp)
   148e0:	01512a23          	sw	s5,20(sp)
   148e4:	02112623          	sw	ra,44(sp)
   148e8:	02912223          	sw	s1,36(sp)
   148ec:	01312e23          	sw	s3,28(sp)
   148f0:	2e050413          	addi	s0,a0,736
   148f4:	00000913          	li	s2,0
   148f8:	00100a13          	li	s4,1
   148fc:	fff00a93          	li	s5,-1
   14900:	02041663          	bnez	s0,1492c <_fwalk+0x5c>
   14904:	02c12083          	lw	ra,44(sp)
   14908:	02812403          	lw	s0,40(sp)
   1490c:	00090513          	mv	a0,s2
   14910:	02412483          	lw	s1,36(sp)
   14914:	02012903          	lw	s2,32(sp)
   14918:	01c12983          	lw	s3,28(sp)
   1491c:	01812a03          	lw	s4,24(sp)
   14920:	01412a83          	lw	s5,20(sp)
   14924:	03010113          	addi	sp,sp,48
   14928:	00008067          	ret
   1492c:	00842483          	lw	s1,8(s0)
   14930:	00442983          	lw	s3,4(s0)
   14934:	fff98993          	addi	s3,s3,-1
   14938:	0009d663          	bgez	s3,14944 <_fwalk+0x74>
   1493c:	00042403          	lw	s0,0(s0)
   14940:	fc1ff06f          	j	14900 <_fwalk+0x30>
   14944:	00c4d783          	lhu	a5,12(s1)
   14948:	02fa7063          	bleu	a5,s4,14968 <_fwalk+0x98>
   1494c:	00e49783          	lh	a5,14(s1)
   14950:	01578c63          	beq	a5,s5,14968 <_fwalk+0x98>
   14954:	00048513          	mv	a0,s1
   14958:	00b12623          	sw	a1,12(sp)
   1495c:	000580e7          	jalr	a1
   14960:	00c12583          	lw	a1,12(sp)
   14964:	00a96933          	or	s2,s2,a0
   14968:	06848493          	addi	s1,s1,104
   1496c:	fc9ff06f          	j	14934 <_fwalk+0x64>

00014970 <_fwalk_reent>:
   14970:	fd010113          	addi	sp,sp,-48
   14974:	02812423          	sw	s0,40(sp)
   14978:	03212023          	sw	s2,32(sp)
   1497c:	01412c23          	sw	s4,24(sp)
   14980:	01512a23          	sw	s5,20(sp)
   14984:	01612823          	sw	s6,16(sp)
   14988:	01712623          	sw	s7,12(sp)
   1498c:	02112623          	sw	ra,44(sp)
   14990:	02912223          	sw	s1,36(sp)
   14994:	01312e23          	sw	s3,28(sp)
   14998:	00050a13          	mv	s4,a0
   1499c:	00058a93          	mv	s5,a1
   149a0:	2e050413          	addi	s0,a0,736
   149a4:	00000913          	li	s2,0
   149a8:	00100b13          	li	s6,1
   149ac:	fff00b93          	li	s7,-1
   149b0:	02041a63          	bnez	s0,149e4 <_fwalk_reent+0x74>
   149b4:	02c12083          	lw	ra,44(sp)
   149b8:	02812403          	lw	s0,40(sp)
   149bc:	00090513          	mv	a0,s2
   149c0:	02412483          	lw	s1,36(sp)
   149c4:	02012903          	lw	s2,32(sp)
   149c8:	01c12983          	lw	s3,28(sp)
   149cc:	01812a03          	lw	s4,24(sp)
   149d0:	01412a83          	lw	s5,20(sp)
   149d4:	01012b03          	lw	s6,16(sp)
   149d8:	00c12b83          	lw	s7,12(sp)
   149dc:	03010113          	addi	sp,sp,48
   149e0:	00008067          	ret
   149e4:	00842483          	lw	s1,8(s0)
   149e8:	00442983          	lw	s3,4(s0)
   149ec:	fff98993          	addi	s3,s3,-1
   149f0:	0009d663          	bgez	s3,149fc <_fwalk_reent+0x8c>
   149f4:	00042403          	lw	s0,0(s0)
   149f8:	fb9ff06f          	j	149b0 <_fwalk_reent+0x40>
   149fc:	00c4d783          	lhu	a5,12(s1)
   14a00:	00fb7e63          	bleu	a5,s6,14a1c <_fwalk_reent+0xac>
   14a04:	00e49783          	lh	a5,14(s1)
   14a08:	01778a63          	beq	a5,s7,14a1c <_fwalk_reent+0xac>
   14a0c:	00048593          	mv	a1,s1
   14a10:	000a0513          	mv	a0,s4
   14a14:	000a80e7          	jalr	s5
   14a18:	00a96933          	or	s2,s2,a0
   14a1c:	06848493          	addi	s1,s1,104
   14a20:	fcdff06f          	j	149ec <_fwalk_reent+0x7c>

00014a24 <iswspace>:
   14a24:	0ff00793          	li	a5,255
   14a28:	02a7ea63          	bltu	a5,a0,14a5c <iswspace+0x38>
   14a2c:	ff010113          	addi	sp,sp,-16
   14a30:	00812423          	sw	s0,8(sp)
   14a34:	00112623          	sw	ra,12(sp)
   14a38:	00050413          	mv	s0,a0
   14a3c:	184020ef          	jal	ra,16bc0 <__locale_ctype_ptr>
   14a40:	00850533          	add	a0,a0,s0
   14a44:	00154503          	lbu	a0,1(a0)
   14a48:	00c12083          	lw	ra,12(sp)
   14a4c:	00812403          	lw	s0,8(sp)
   14a50:	00857513          	andi	a0,a0,8
   14a54:	01010113          	addi	sp,sp,16
   14a58:	00008067          	ret
   14a5c:	00000513          	li	a0,0
   14a60:	00008067          	ret
   14a64:	0000                	unimp
	...

00014a68 <eclear>:
   14a68:	01450793          	addi	a5,a0,20
   14a6c:	00250513          	addi	a0,a0,2
   14a70:	fe051f23          	sh	zero,-2(a0)
   14a74:	fef51ce3          	bne	a0,a5,14a6c <eclear+0x4>
   14a78:	00008067          	ret

00014a7c <emov>:
   14a7c:	01450793          	addi	a5,a0,20
   14a80:	00250513          	addi	a0,a0,2
   14a84:	ffe55703          	lhu	a4,-2(a0)
   14a88:	00258593          	addi	a1,a1,2
   14a8c:	fee59f23          	sh	a4,-2(a1)
   14a90:	fea798e3          	bne	a5,a0,14a80 <emov+0x4>
   14a94:	00008067          	ret

00014a98 <ecleaz>:
   14a98:	01a50793          	addi	a5,a0,26
   14a9c:	00250513          	addi	a0,a0,2
   14aa0:	fe051f23          	sh	zero,-2(a0)
   14aa4:	fef51ce3          	bne	a0,a5,14a9c <ecleaz+0x4>
   14aa8:	00008067          	ret

00014aac <emovz>:
   14aac:	01850713          	addi	a4,a0,24
   14ab0:	00058793          	mv	a5,a1
   14ab4:	00250513          	addi	a0,a0,2
   14ab8:	ffe55683          	lhu	a3,-2(a0)
   14abc:	00278793          	addi	a5,a5,2
   14ac0:	fed79f23          	sh	a3,-2(a5)
   14ac4:	fea718e3          	bne	a4,a0,14ab4 <emovz+0x8>
   14ac8:	00059c23          	sh	zero,24(a1)
   14acc:	00008067          	ret

00014ad0 <ecmpm>:
   14ad0:	00450793          	addi	a5,a0,4
   14ad4:	00458593          	addi	a1,a1,4
   14ad8:	01a50513          	addi	a0,a0,26
   14adc:	00278793          	addi	a5,a5,2
   14ae0:	00258593          	addi	a1,a1,2
   14ae4:	ffe7d683          	lhu	a3,-2(a5)
   14ae8:	ffe5d703          	lhu	a4,-2(a1)
   14aec:	00e69863          	bne	a3,a4,14afc <ecmpm+0x2c>
   14af0:	fef516e3          	bne	a0,a5,14adc <ecmpm+0xc>
   14af4:	00000513          	li	a0,0
   14af8:	00008067          	ret
   14afc:	00100513          	li	a0,1
   14b00:	00d76463          	bltu	a4,a3,14b08 <ecmpm+0x38>
   14b04:	fff00513          	li	a0,-1
   14b08:	00008067          	ret

00014b0c <eshdn1>:
   14b0c:	00450693          	addi	a3,a0,4
   14b10:	00000793          	li	a5,0
   14b14:	01a50513          	addi	a0,a0,26
   14b18:	ffff8637          	lui	a2,0xffff8
   14b1c:	0006d703          	lhu	a4,0(a3)
   14b20:	00177593          	andi	a1,a4,1
   14b24:	00058463          	beqz	a1,14b2c <eshdn1+0x20>
   14b28:	0017e793          	ori	a5,a5,1
   14b2c:	0027f593          	andi	a1,a5,2
   14b30:	00175713          	srli	a4,a4,0x1
   14b34:	02059063          	bnez	a1,14b54 <eshdn1+0x48>
   14b38:	00179793          	slli	a5,a5,0x1
   14b3c:	00e69023          	sh	a4,0(a3)
   14b40:	01079793          	slli	a5,a5,0x10
   14b44:	00268693          	addi	a3,a3,2
   14b48:	0107d793          	srli	a5,a5,0x10
   14b4c:	fcd518e3          	bne	a0,a3,14b1c <eshdn1+0x10>
   14b50:	00008067          	ret
   14b54:	00c76733          	or	a4,a4,a2
   14b58:	fe1ff06f          	j	14b38 <eshdn1+0x2c>

00014b5c <eshup1>:
   14b5c:	01650693          	addi	a3,a0,22
   14b60:	00000713          	li	a4,0
   14b64:	0026d783          	lhu	a5,2(a3)
   14b68:	01079613          	slli	a2,a5,0x10
   14b6c:	41065613          	srai	a2,a2,0x10
   14b70:	00065463          	bgez	a2,14b78 <eshup1+0x1c>
   14b74:	00176713          	ori	a4,a4,1
   14b78:	00179793          	slli	a5,a5,0x1
   14b7c:	01079793          	slli	a5,a5,0x10
   14b80:	00277613          	andi	a2,a4,2
   14b84:	0107d793          	srli	a5,a5,0x10
   14b88:	02061063          	bnez	a2,14ba8 <eshup1+0x4c>
   14b8c:	00171713          	slli	a4,a4,0x1
   14b90:	00f69123          	sh	a5,2(a3)
   14b94:	01071713          	slli	a4,a4,0x10
   14b98:	ffe68693          	addi	a3,a3,-2
   14b9c:	01075713          	srli	a4,a4,0x10
   14ba0:	fcd512e3          	bne	a0,a3,14b64 <eshup1+0x8>
   14ba4:	00008067          	ret
   14ba8:	0017e793          	ori	a5,a5,1
   14bac:	fe1ff06f          	j	14b8c <eshup1+0x30>

00014bb0 <eshdn8>:
   14bb0:	00450793          	addi	a5,a0,4
   14bb4:	00000713          	li	a4,0
   14bb8:	01a50513          	addi	a0,a0,26
   14bbc:	0007d683          	lhu	a3,0(a5)
   14bc0:	00278793          	addi	a5,a5,2
   14bc4:	0086d613          	srli	a2,a3,0x8
   14bc8:	00c76733          	or	a4,a4,a2
   14bcc:	fee79f23          	sh	a4,-2(a5)
   14bd0:	00869713          	slli	a4,a3,0x8
   14bd4:	01071713          	slli	a4,a4,0x10
   14bd8:	01075713          	srli	a4,a4,0x10
   14bdc:	fef510e3          	bne	a0,a5,14bbc <eshdn8+0xc>
   14be0:	00008067          	ret

00014be4 <eshup8>:
   14be4:	01650793          	addi	a5,a0,22
   14be8:	00000713          	li	a4,0
   14bec:	0027d683          	lhu	a3,2(a5)
   14bf0:	ffe78793          	addi	a5,a5,-2
   14bf4:	00869613          	slli	a2,a3,0x8
   14bf8:	00c76733          	or	a4,a4,a2
   14bfc:	00e79223          	sh	a4,4(a5)
   14c00:	0086d713          	srli	a4,a3,0x8
   14c04:	fef514e3          	bne	a0,a5,14bec <eshup8+0x8>
   14c08:	00008067          	ret

00014c0c <eshup6>:
   14c0c:	00450793          	addi	a5,a0,4
   14c10:	01850713          	addi	a4,a0,24
   14c14:	00278793          	addi	a5,a5,2
   14c18:	0007d683          	lhu	a3,0(a5)
   14c1c:	fed79f23          	sh	a3,-2(a5)
   14c20:	fef71ae3          	bne	a4,a5,14c14 <eshup6+0x8>
   14c24:	00051c23          	sh	zero,24(a0)
   14c28:	00008067          	ret

00014c2c <eshdn6>:
   14c2c:	01850793          	addi	a5,a0,24
   14c30:	01a50713          	addi	a4,a0,26
   14c34:	00450693          	addi	a3,a0,4
   14c38:	ffe78793          	addi	a5,a5,-2
   14c3c:	0007d603          	lhu	a2,0(a5)
   14c40:	ffe70713          	addi	a4,a4,-2
   14c44:	00c71023          	sh	a2,0(a4)
   14c48:	fef698e3          	bne	a3,a5,14c38 <eshdn6+0xc>
   14c4c:	00051223          	sh	zero,4(a0)
   14c50:	00008067          	ret

00014c54 <eaddm>:
   14c54:	01858593          	addi	a1,a1,24
   14c58:	01650713          	addi	a4,a0,22
   14c5c:	00000693          	li	a3,0
   14c60:	00275783          	lhu	a5,2(a4)
   14c64:	0005d603          	lhu	a2,0(a1)
   14c68:	ffe70713          	addi	a4,a4,-2
   14c6c:	ffe58593          	addi	a1,a1,-2
   14c70:	00c787b3          	add	a5,a5,a2
   14c74:	00d787b3          	add	a5,a5,a3
   14c78:	00f59123          	sh	a5,2(a1)
   14c7c:	0107d793          	srli	a5,a5,0x10
   14c80:	0017f693          	andi	a3,a5,1
   14c84:	fce51ee3          	bne	a0,a4,14c60 <eaddm+0xc>
   14c88:	00008067          	ret

00014c8c <esubm>:
   14c8c:	01858593          	addi	a1,a1,24
   14c90:	01650713          	addi	a4,a0,22
   14c94:	00000693          	li	a3,0
   14c98:	0005d783          	lhu	a5,0(a1)
   14c9c:	00275603          	lhu	a2,2(a4)
   14ca0:	ffe70713          	addi	a4,a4,-2
   14ca4:	ffe58593          	addi	a1,a1,-2
   14ca8:	40c787b3          	sub	a5,a5,a2
   14cac:	40d787b3          	sub	a5,a5,a3
   14cb0:	00f59123          	sh	a5,2(a1)
   14cb4:	0107d793          	srli	a5,a5,0x10
   14cb8:	0017f693          	andi	a3,a5,1
   14cbc:	fce51ee3          	bne	a0,a4,14c98 <esubm+0xc>
   14cc0:	00008067          	ret

00014cc4 <m16m>:
   14cc4:	fb010113          	addi	sp,sp,-80
   14cc8:	03312e23          	sw	s3,60(sp)
   14ccc:	000109b7          	lui	s3,0x10
   14cd0:	04812423          	sw	s0,72(sp)
   14cd4:	04912223          	sw	s1,68(sp)
   14cd8:	05212023          	sw	s2,64(sp)
   14cdc:	03412c23          	sw	s4,56(sp)
   14ce0:	04112623          	sw	ra,76(sp)
   14ce4:	00050a13          	mv	s4,a0
   14ce8:	02011523          	sh	zero,42(sp)
   14cec:	02011623          	sh	zero,44(sp)
   14cf0:	01858493          	addi	s1,a1,24
   14cf4:	00458913          	addi	s2,a1,4
   14cf8:	02c10413          	addi	s0,sp,44
   14cfc:	fff98993          	addi	s3,s3,-1 # ffff <_start-0x75>
   14d00:	0004d503          	lhu	a0,0(s1)
   14d04:	ffe40413          	addi	s0,s0,-2
   14d08:	ffe48493          	addi	s1,s1,-2
   14d0c:	04051863          	bnez	a0,14d5c <m16m+0x98>
   14d10:	fe041f23          	sh	zero,-2(s0)
   14d14:	fe9916e3          	bne	s2,s1,14d00 <m16m+0x3c>
   14d18:	00400793          	li	a5,4
   14d1c:	01a00713          	li	a4,26
   14d20:	01410593          	addi	a1,sp,20
   14d24:	00f585b3          	add	a1,a1,a5
   14d28:	0005d583          	lhu	a1,0(a1)
   14d2c:	00f606b3          	add	a3,a2,a5
   14d30:	00278793          	addi	a5,a5,2
   14d34:	00b69023          	sh	a1,0(a3)
   14d38:	fee794e3          	bne	a5,a4,14d20 <m16m+0x5c>
   14d3c:	04c12083          	lw	ra,76(sp)
   14d40:	04812403          	lw	s0,72(sp)
   14d44:	04412483          	lw	s1,68(sp)
   14d48:	04012903          	lw	s2,64(sp)
   14d4c:	03c12983          	lw	s3,60(sp)
   14d50:	03812a03          	lw	s4,56(sp)
   14d54:	05010113          	addi	sp,sp,80
   14d58:	00008067          	ret
   14d5c:	000a0593          	mv	a1,s4
   14d60:	00c12623          	sw	a2,12(sp)
   14d64:	7b4140ef          	jal	ra,29518 <__mulsi3>
   14d68:	00245703          	lhu	a4,2(s0)
   14d6c:	013577b3          	and	a5,a0,s3
   14d70:	01055513          	srli	a0,a0,0x10
   14d74:	00e787b3          	add	a5,a5,a4
   14d78:	00045703          	lhu	a4,0(s0)
   14d7c:	00f41123          	sh	a5,2(s0)
   14d80:	0107d793          	srli	a5,a5,0x10
   14d84:	00e50533          	add	a0,a0,a4
   14d88:	00f50533          	add	a0,a0,a5
   14d8c:	00a41023          	sh	a0,0(s0)
   14d90:	01055513          	srli	a0,a0,0x10
   14d94:	fea41f23          	sh	a0,-2(s0)
   14d98:	00c12603          	lw	a2,12(sp)
   14d9c:	f79ff06f          	j	14d14 <m16m+0x50>

00014da0 <eisnan>:
   14da0:	01255783          	lhu	a5,18(a0)
   14da4:	fff7c793          	not	a5,a5
   14da8:	01179713          	slli	a4,a5,0x11
   14dac:	00071c63          	bnez	a4,14dc4 <eisnan+0x24>
   14db0:	01250793          	addi	a5,a0,18
   14db4:	00250513          	addi	a0,a0,2
   14db8:	ffe55703          	lhu	a4,-2(a0)
   14dbc:	00071863          	bnez	a4,14dcc <eisnan+0x2c>
   14dc0:	fea79ae3          	bne	a5,a0,14db4 <eisnan+0x14>
   14dc4:	00000513          	li	a0,0
   14dc8:	00008067          	ret
   14dcc:	00100513          	li	a0,1
   14dd0:	00008067          	ret

00014dd4 <eisneg>:
   14dd4:	ff010113          	addi	sp,sp,-16
   14dd8:	00812423          	sw	s0,8(sp)
   14ddc:	00112623          	sw	ra,12(sp)
   14de0:	00050413          	mv	s0,a0
   14de4:	fbdff0ef          	jal	ra,14da0 <eisnan>
   14de8:	00051e63          	bnez	a0,14e04 <eisneg+0x30>
   14dec:	01241503          	lh	a0,18(s0)
   14df0:	01f55513          	srli	a0,a0,0x1f
   14df4:	00c12083          	lw	ra,12(sp)
   14df8:	00812403          	lw	s0,8(sp)
   14dfc:	01010113          	addi	sp,sp,16
   14e00:	00008067          	ret
   14e04:	00000513          	li	a0,0
   14e08:	fedff06f          	j	14df4 <eisneg+0x20>

00014e0c <emovi>:
   14e0c:	01251783          	lh	a5,18(a0)
   14e10:	ff010113          	addi	sp,sp,-16
   14e14:	00112623          	sw	ra,12(sp)
   14e18:	00812423          	sw	s0,8(sp)
   14e1c:	00912223          	sw	s1,4(sp)
   14e20:	01212023          	sw	s2,0(sp)
   14e24:	0607d863          	bgez	a5,14e94 <emovi+0x88>
   14e28:	fff00793          	li	a5,-1
   14e2c:	00f59023          	sh	a5,0(a1)
   14e30:	01255703          	lhu	a4,18(a0)
   14e34:	000087b7          	lui	a5,0x8
   14e38:	fff78793          	addi	a5,a5,-1 # 7fff <_start-0x8075>
   14e3c:	00e7f733          	and	a4,a5,a4
   14e40:	00e59123          	sh	a4,2(a1)
   14e44:	01050913          	addi	s2,a0,16
   14e48:	06f71663          	bne	a4,a5,14eb4 <emovi+0xa8>
   14e4c:	00058413          	mv	s0,a1
   14e50:	00050493          	mv	s1,a0
   14e54:	f4dff0ef          	jal	ra,14da0 <eisnan>
   14e58:	04050263          	beqz	a0,14e9c <emovi+0x90>
   14e5c:	00640793          	addi	a5,s0,6
   14e60:	00041223          	sh	zero,4(s0)
   14e64:	ffc48513          	addi	a0,s1,-4
   14e68:	ffe90913          	addi	s2,s2,-2
   14e6c:	00295703          	lhu	a4,2(s2)
   14e70:	00278793          	addi	a5,a5,2
   14e74:	fee79f23          	sh	a4,-2(a5)
   14e78:	fea918e3          	bne	s2,a0,14e68 <emovi+0x5c>
   14e7c:	00c12083          	lw	ra,12(sp)
   14e80:	00812403          	lw	s0,8(sp)
   14e84:	00412483          	lw	s1,4(sp)
   14e88:	00012903          	lw	s2,0(sp)
   14e8c:	01010113          	addi	sp,sp,16
   14e90:	00008067          	ret
   14e94:	00059023          	sh	zero,0(a1)
   14e98:	f99ff06f          	j	14e30 <emovi+0x24>
   14e9c:	00440793          	addi	a5,s0,4
   14ea0:	01a40593          	addi	a1,s0,26
   14ea4:	00278793          	addi	a5,a5,2
   14ea8:	fe079f23          	sh	zero,-2(a5)
   14eac:	feb79ce3          	bne	a5,a1,14ea4 <emovi+0x98>
   14eb0:	fcdff06f          	j	14e7c <emovi+0x70>
   14eb4:	00658793          	addi	a5,a1,6
   14eb8:	00059223          	sh	zero,4(a1)
   14ebc:	ffe50513          	addi	a0,a0,-2
   14ec0:	ffe90913          	addi	s2,s2,-2
   14ec4:	00295703          	lhu	a4,2(s2)
   14ec8:	00278793          	addi	a5,a5,2
   14ecc:	fee79f23          	sh	a4,-2(a5)
   14ed0:	fea918e3          	bne	s2,a0,14ec0 <emovi+0xb4>
   14ed4:	00059c23          	sh	zero,24(a1)
   14ed8:	fa5ff06f          	j	14e7c <emovi+0x70>

00014edc <ecmp>:
   14edc:	fb010113          	addi	sp,sp,-80
   14ee0:	04912223          	sw	s1,68(sp)
   14ee4:	05212023          	sw	s2,64(sp)
   14ee8:	04112623          	sw	ra,76(sp)
   14eec:	04812423          	sw	s0,72(sp)
   14ef0:	00050913          	mv	s2,a0
   14ef4:	00058493          	mv	s1,a1
   14ef8:	ea9ff0ef          	jal	ra,14da0 <eisnan>
   14efc:	0e051063          	bnez	a0,14fdc <ecmp+0x100>
   14f00:	00048513          	mv	a0,s1
   14f04:	e9dff0ef          	jal	ra,14da0 <eisnan>
   14f08:	00050413          	mv	s0,a0
   14f0c:	0c051863          	bnez	a0,14fdc <ecmp+0x100>
   14f10:	00810593          	addi	a1,sp,8
   14f14:	00090513          	mv	a0,s2
   14f18:	ef5ff0ef          	jal	ra,14e0c <emovi>
   14f1c:	02410593          	addi	a1,sp,36
   14f20:	00048513          	mv	a0,s1
   14f24:	ee9ff0ef          	jal	ra,14e0c <emovi>
   14f28:	00815703          	lhu	a4,8(sp)
   14f2c:	02415783          	lhu	a5,36(sp)
   14f30:	06e78063          	beq	a5,a4,14f90 <ecmp+0xb4>
   14f34:	00200793          	li	a5,2
   14f38:	01800693          	li	a3,24
   14f3c:	00810613          	addi	a2,sp,8
   14f40:	00f60633          	add	a2,a2,a5
   14f44:	00065603          	lhu	a2,0(a2) # ffff8000 <__global_pointer$+0xfffcbe48>
   14f48:	02061c63          	bnez	a2,14f80 <ecmp+0xa4>
   14f4c:	02410613          	addi	a2,sp,36
   14f50:	00f60633          	add	a2,a2,a5
   14f54:	00065603          	lhu	a2,0(a2)
   14f58:	02061463          	bnez	a2,14f80 <ecmp+0xa4>
   14f5c:	00278793          	addi	a5,a5,2
   14f60:	fcd79ee3          	bne	a5,a3,14f3c <ecmp+0x60>
   14f64:	00040513          	mv	a0,s0
   14f68:	04c12083          	lw	ra,76(sp)
   14f6c:	04812403          	lw	s0,72(sp)
   14f70:	04412483          	lw	s1,68(sp)
   14f74:	04012903          	lw	s2,64(sp)
   14f78:	05010113          	addi	sp,sp,80
   14f7c:	00008067          	ret
   14f80:	00100413          	li	s0,1
   14f84:	fe0700e3          	beqz	a4,14f64 <ecmp+0x88>
   14f88:	fff00413          	li	s0,-1
   14f8c:	fd9ff06f          	j	14f64 <ecmp+0x88>
   14f90:	00100613          	li	a2,1
   14f94:	00078463          	beqz	a5,14f9c <ecmp+0xc0>
   14f98:	fff00613          	li	a2,-1
   14f9c:	00000793          	li	a5,0
   14fa0:	01800593          	li	a1,24
   14fa4:	00810713          	addi	a4,sp,8
   14fa8:	00f70733          	add	a4,a4,a5
   14fac:	00075683          	lhu	a3,0(a4)
   14fb0:	02410713          	addi	a4,sp,36
   14fb4:	00f70733          	add	a4,a4,a5
   14fb8:	00075703          	lhu	a4,0(a4)
   14fbc:	00e69863          	bne	a3,a4,14fcc <ecmp+0xf0>
   14fc0:	00278793          	addi	a5,a5,2
   14fc4:	feb790e3          	bne	a5,a1,14fa4 <ecmp+0xc8>
   14fc8:	f9dff06f          	j	14f64 <ecmp+0x88>
   14fcc:	00060413          	mv	s0,a2
   14fd0:	f8d76ae3          	bltu	a4,a3,14f64 <ecmp+0x88>
   14fd4:	40c00433          	neg	s0,a2
   14fd8:	f8dff06f          	j	14f64 <ecmp+0x88>
   14fdc:	ffe00413          	li	s0,-2
   14fe0:	f85ff06f          	j	14f64 <ecmp+0x88>

00014fe4 <eisinf>:
   14fe4:	01255783          	lhu	a5,18(a0)
   14fe8:	fff7c793          	not	a5,a5
   14fec:	01179713          	slli	a4,a5,0x11
   14ff0:	02071063          	bnez	a4,15010 <eisinf+0x2c>
   14ff4:	ff010113          	addi	sp,sp,-16
   14ff8:	00112623          	sw	ra,12(sp)
   14ffc:	da5ff0ef          	jal	ra,14da0 <eisnan>
   15000:	00c12083          	lw	ra,12(sp)
   15004:	00153513          	seqz	a0,a0
   15008:	01010113          	addi	sp,sp,16
   1500c:	00008067          	ret
   15010:	00000513          	li	a0,0
   15014:	00008067          	ret

00015018 <einfin.isra.2>:
   15018:	01250793          	addi	a5,a0,18
   1501c:	00250513          	addi	a0,a0,2
   15020:	fe051f23          	sh	zero,-2(a0)
   15024:	fef51ce3          	bne	a0,a5,1501c <einfin.isra.2+0x4>
   15028:	00055783          	lhu	a5,0(a0)
   1502c:	00008737          	lui	a4,0x8
   15030:	fff70713          	addi	a4,a4,-1 # 7fff <_start-0x8075>
   15034:	00e7e7b3          	or	a5,a5,a4
   15038:	00f51023          	sh	a5,0(a0)
   1503c:	00008067          	ret

00015040 <eshift.part.3>:
   15040:	fe010113          	addi	sp,sp,-32
   15044:	00812c23          	sw	s0,24(sp)
   15048:	01212823          	sw	s2,16(sp)
   1504c:	00112e23          	sw	ra,28(sp)
   15050:	00912a23          	sw	s1,20(sp)
   15054:	01312623          	sw	s3,12(sp)
   15058:	01412423          	sw	s4,8(sp)
   1505c:	01512223          	sw	s5,4(sp)
   15060:	00050913          	mv	s2,a0
   15064:	00058413          	mv	s0,a1
   15068:	1005d263          	bgez	a1,1516c <eshift.part.3+0x12c>
   1506c:	40b00a33          	neg	s4,a1
   15070:	000a0993          	mv	s3,s4
   15074:	00000493          	li	s1,0
   15078:	00f00a93          	li	s5,15
   1507c:	033ace63          	blt	s5,s3,150b8 <eshift.part.3+0x78>
   15080:	004a5513          	srli	a0,s4,0x4
   15084:	ff000593          	li	a1,-16
   15088:	490140ef          	jal	ra,29518 <__mulsi3>
   1508c:	40850433          	sub	s0,a0,s0
   15090:	00040993          	mv	s3,s0
   15094:	00700a13          	li	s4,7
   15098:	033a4c63          	blt	s4,s3,150d0 <eshift.part.3+0x90>
   1509c:	00345513          	srli	a0,s0,0x3
   150a0:	ff800593          	li	a1,-8
   150a4:	474140ef          	jal	ra,29518 <__mulsi3>
   150a8:	00850433          	add	s0,a0,s0
   150ac:	02041e63          	bnez	s0,150e8 <eshift.part.3+0xa8>
   150b0:	00903533          	snez	a0,s1
   150b4:	0940006f          	j	15148 <eshift.part.3+0x108>
   150b8:	01895783          	lhu	a5,24(s2)
   150bc:	00090513          	mv	a0,s2
   150c0:	ff098993          	addi	s3,s3,-16
   150c4:	00f4e4b3          	or	s1,s1,a5
   150c8:	b65ff0ef          	jal	ra,14c2c <eshdn6>
   150cc:	fb1ff06f          	j	1507c <eshift.part.3+0x3c>
   150d0:	01894783          	lbu	a5,24(s2)
   150d4:	00090513          	mv	a0,s2
   150d8:	ff898993          	addi	s3,s3,-8
   150dc:	0097e4b3          	or	s1,a5,s1
   150e0:	ad1ff0ef          	jal	ra,14bb0 <eshdn8>
   150e4:	fb5ff06f          	j	15098 <eshift.part.3+0x58>
   150e8:	01895783          	lhu	a5,24(s2)
   150ec:	00090513          	mv	a0,s2
   150f0:	fff40413          	addi	s0,s0,-1
   150f4:	0017f793          	andi	a5,a5,1
   150f8:	0097e4b3          	or	s1,a5,s1
   150fc:	a11ff0ef          	jal	ra,14b0c <eshdn1>
   15100:	fadff06f          	j	150ac <eshift.part.3+0x6c>
   15104:	00090513          	mv	a0,s2
   15108:	b05ff0ef          	jal	ra,14c0c <eshup6>
   1510c:	ff048493          	addi	s1,s1,-16
   15110:	fe99cae3          	blt	s3,s1,15104 <eshift.part.3+0xc4>
   15114:	00445513          	srli	a0,s0,0x4
   15118:	ff000593          	li	a1,-16
   1511c:	3fc140ef          	jal	ra,29518 <__mulsi3>
   15120:	00a40433          	add	s0,s0,a0
   15124:	00040493          	mv	s1,s0
   15128:	00700993          	li	s3,7
   1512c:	0499c663          	blt	s3,s1,15178 <eshift.part.3+0x138>
   15130:	00345513          	srli	a0,s0,0x3
   15134:	ff800593          	li	a1,-8
   15138:	3e0140ef          	jal	ra,29518 <__mulsi3>
   1513c:	00a40433          	add	s0,s0,a0
   15140:	04041463          	bnez	s0,15188 <eshift.part.3+0x148>
   15144:	00000513          	li	a0,0
   15148:	01c12083          	lw	ra,28(sp)
   1514c:	01812403          	lw	s0,24(sp)
   15150:	01412483          	lw	s1,20(sp)
   15154:	01012903          	lw	s2,16(sp)
   15158:	00c12983          	lw	s3,12(sp)
   1515c:	00812a03          	lw	s4,8(sp)
   15160:	00412a83          	lw	s5,4(sp)
   15164:	02010113          	addi	sp,sp,32
   15168:	00008067          	ret
   1516c:	00058493          	mv	s1,a1
   15170:	00f00993          	li	s3,15
   15174:	f9dff06f          	j	15110 <eshift.part.3+0xd0>
   15178:	00090513          	mv	a0,s2
   1517c:	a69ff0ef          	jal	ra,14be4 <eshup8>
   15180:	ff848493          	addi	s1,s1,-8
   15184:	fa9ff06f          	j	1512c <eshift.part.3+0xec>
   15188:	00090513          	mv	a0,s2
   1518c:	9d1ff0ef          	jal	ra,14b5c <eshup1>
   15190:	fff40413          	addi	s0,s0,-1
   15194:	fadff06f          	j	15140 <eshift.part.3+0x100>

00015198 <enormlz>:
   15198:	00455783          	lhu	a5,4(a0)
   1519c:	ff010113          	addi	sp,sp,-16
   151a0:	00912223          	sw	s1,4(sp)
   151a4:	00112623          	sw	ra,12(sp)
   151a8:	00812423          	sw	s0,8(sp)
   151ac:	01212023          	sw	s2,0(sp)
   151b0:	00050493          	mv	s1,a0
   151b4:	08079263          	bnez	a5,15238 <enormlz+0xa0>
   151b8:	00651783          	lh	a5,6(a0)
   151bc:	00000413          	li	s0,0
   151c0:	0a000913          	li	s2,160
   151c4:	0207d863          	bgez	a5,151f4 <enormlz+0x5c>
   151c8:	00040513          	mv	a0,s0
   151cc:	00c12083          	lw	ra,12(sp)
   151d0:	00812403          	lw	s0,8(sp)
   151d4:	00412483          	lw	s1,4(sp)
   151d8:	00012903          	lw	s2,0(sp)
   151dc:	01010113          	addi	sp,sp,16
   151e0:	00008067          	ret
   151e4:	00048513          	mv	a0,s1
   151e8:	01040413          	addi	s0,s0,16
   151ec:	a21ff0ef          	jal	ra,14c0c <eshup6>
   151f0:	fd240ce3          	beq	s0,s2,151c8 <enormlz+0x30>
   151f4:	0064d783          	lhu	a5,6(s1)
   151f8:	fe0786e3          	beqz	a5,151e4 <enormlz+0x4c>
   151fc:	0064d783          	lhu	a5,6(s1)
   15200:	f007f793          	andi	a5,a5,-256
   15204:	02078263          	beqz	a5,15228 <enormlz+0x90>
   15208:	0a000913          	li	s2,160
   1520c:	00649783          	lh	a5,6(s1)
   15210:	fa07cce3          	bltz	a5,151c8 <enormlz+0x30>
   15214:	00048513          	mv	a0,s1
   15218:	00140413          	addi	s0,s0,1
   1521c:	941ff0ef          	jal	ra,14b5c <eshup1>
   15220:	fe8956e3          	ble	s0,s2,1520c <enormlz+0x74>
   15224:	fa5ff06f          	j	151c8 <enormlz+0x30>
   15228:	00048513          	mv	a0,s1
   1522c:	9b9ff0ef          	jal	ra,14be4 <eshup8>
   15230:	00840413          	addi	s0,s0,8
   15234:	fc9ff06f          	j	151fc <enormlz+0x64>
   15238:	f007f793          	andi	a5,a5,-256
   1523c:	00000413          	li	s0,0
   15240:	00078663          	beqz	a5,1524c <enormlz+0xb4>
   15244:	96dff0ef          	jal	ra,14bb0 <eshdn8>
   15248:	ff800413          	li	s0,-8
   1524c:	f7000913          	li	s2,-144
   15250:	0140006f          	j	15264 <enormlz+0xcc>
   15254:	00048513          	mv	a0,s1
   15258:	fff40413          	addi	s0,s0,-1
   1525c:	8b1ff0ef          	jal	ra,14b0c <eshdn1>
   15260:	f72444e3          	blt	s0,s2,151c8 <enormlz+0x30>
   15264:	0044d783          	lhu	a5,4(s1)
   15268:	fe0796e3          	bnez	a5,15254 <enormlz+0xbc>
   1526c:	f5dff06f          	j	151c8 <enormlz+0x30>

00015270 <enan.constprop.12>:
   15270:	01050793          	addi	a5,a0,16
   15274:	00250513          	addi	a0,a0,2
   15278:	fe051f23          	sh	zero,-2(a0)
   1527c:	fef51ce3          	bne	a0,a5,15274 <enan.constprop.12+0x4>
   15280:	ffffc7b7          	lui	a5,0xffffc
   15284:	00f51023          	sh	a5,0(a0)
   15288:	000087b7          	lui	a5,0x8
   1528c:	fff78793          	addi	a5,a5,-1 # 7fff <_start-0x8075>
   15290:	00f51123          	sh	a5,2(a0)
   15294:	00008067          	ret

00015298 <emovo.isra.6>:
   15298:	00050713          	mv	a4,a0
   1529c:	00075683          	lhu	a3,0(a4)
   152a0:	00058513          	mv	a0,a1
   152a4:	00275783          	lhu	a5,2(a4)
   152a8:	00068663          	beqz	a3,152b4 <emovo.isra.6+0x1c>
   152ac:	ffff86b7          	lui	a3,0xffff8
   152b0:	00d7e7b3          	or	a5,a5,a3
   152b4:	00f51923          	sh	a5,18(a0)
   152b8:	00275603          	lhu	a2,2(a4)
   152bc:	000086b7          	lui	a3,0x8
   152c0:	fff68693          	addi	a3,a3,-1 # 7fff <_start-0x8075>
   152c4:	00670793          	addi	a5,a4,6
   152c8:	00d61e63          	bne	a2,a3,152e4 <emovo.isra.6+0x4c>
   152cc:	01a70713          	addi	a4,a4,26
   152d0:	0007d683          	lhu	a3,0(a5)
   152d4:	02069863          	bnez	a3,15304 <emovo.isra.6+0x6c>
   152d8:	00278793          	addi	a5,a5,2
   152dc:	fee79ae3          	bne	a5,a4,152d0 <emovo.isra.6+0x38>
   152e0:	d39ff06f          	j	15018 <einfin.isra.2>
   152e4:	01050513          	addi	a0,a0,16
   152e8:	01870713          	addi	a4,a4,24
   152ec:	00278793          	addi	a5,a5,2
   152f0:	ffe7d683          	lhu	a3,-2(a5)
   152f4:	ffe50513          	addi	a0,a0,-2
   152f8:	00d51123          	sh	a3,2(a0)
   152fc:	fee798e3          	bne	a5,a4,152ec <emovo.isra.6+0x54>
   15300:	00008067          	ret
   15304:	f6dff06f          	j	15270 <enan.constprop.12>

00015308 <e113toe.isra.8>:
   15308:	fd010113          	addi	sp,sp,-48
   1530c:	02912223          	sw	s1,36(sp)
   15310:	00050493          	mv	s1,a0
   15314:	00410513          	addi	a0,sp,4
   15318:	02812423          	sw	s0,40(sp)
   1531c:	02112623          	sw	ra,44(sp)
   15320:	00058413          	mv	s0,a1
   15324:	f74ff0ef          	jal	ra,14a98 <ecleaz>
   15328:	00e4d703          	lhu	a4,14(s1)
   1532c:	01071793          	slli	a5,a4,0x10
   15330:	4107d793          	srai	a5,a5,0x10
   15334:	0407c263          	bltz	a5,15378 <e113toe.isra.8+0x70>
   15338:	00011223          	sh	zero,4(sp)
   1533c:	000086b7          	lui	a3,0x8
   15340:	fff68693          	addi	a3,a3,-1 # 7fff <_start-0x8075>
   15344:	00d77733          	and	a4,a4,a3
   15348:	00e48793          	addi	a5,s1,14
   1534c:	06d71c63          	bne	a4,a3,153c4 <e113toe.isra.8+0xbc>
   15350:	00048713          	mv	a4,s1
   15354:	00075683          	lhu	a3,0(a4)
   15358:	02068663          	beqz	a3,15384 <e113toe.isra.8+0x7c>
   1535c:	00040513          	mv	a0,s0
   15360:	f11ff0ef          	jal	ra,15270 <enan.constprop.12>
   15364:	02c12083          	lw	ra,44(sp)
   15368:	02812403          	lw	s0,40(sp)
   1536c:	02412483          	lw	s1,36(sp)
   15370:	03010113          	addi	sp,sp,48
   15374:	00008067          	ret
   15378:	fff00793          	li	a5,-1
   1537c:	00f11223          	sh	a5,4(sp)
   15380:	fbdff06f          	j	1533c <e113toe.isra.8+0x34>
   15384:	00270713          	addi	a4,a4,2
   15388:	fce796e3          	bne	a5,a4,15354 <e113toe.isra.8+0x4c>
   1538c:	00040513          	mv	a0,s0
   15390:	ed8ff0ef          	jal	ra,14a68 <eclear>
   15394:	00040513          	mv	a0,s0
   15398:	c81ff0ef          	jal	ra,15018 <einfin.isra.2>
   1539c:	00e49783          	lh	a5,14(s1)
   153a0:	fc07d2e3          	bgez	a5,15364 <e113toe.isra.8+0x5c>
   153a4:	00040513          	mv	a0,s0
   153a8:	9f9ff0ef          	jal	ra,14da0 <eisnan>
   153ac:	fa051ce3          	bnez	a0,15364 <e113toe.isra.8+0x5c>
   153b0:	01245783          	lhu	a5,18(s0)
   153b4:	ffff8737          	lui	a4,0xffff8
   153b8:	00e7c7b3          	xor	a5,a5,a4
   153bc:	00f41923          	sh	a5,18(s0)
   153c0:	fa5ff06f          	j	15364 <e113toe.isra.8+0x5c>
   153c4:	00e11323          	sh	a4,6(sp)
   153c8:	00410693          	addi	a3,sp,4
   153cc:	ffe78793          	addi	a5,a5,-2
   153d0:	0007d603          	lhu	a2,0(a5)
   153d4:	00268693          	addi	a3,a3,2
   153d8:	00c69223          	sh	a2,4(a3)
   153dc:	fef498e3          	bne	s1,a5,153cc <e113toe.isra.8+0xc4>
   153e0:	00071c63          	bnez	a4,153f8 <e113toe.isra.8+0xf0>
   153e4:	00011423          	sh	zero,8(sp)
   153e8:	00040593          	mv	a1,s0
   153ec:	00410513          	addi	a0,sp,4
   153f0:	ea9ff0ef          	jal	ra,15298 <emovo.isra.6>
   153f4:	f71ff06f          	j	15364 <e113toe.isra.8+0x5c>
   153f8:	00100793          	li	a5,1
   153fc:	fff00593          	li	a1,-1
   15400:	00410513          	addi	a0,sp,4
   15404:	00f11423          	sh	a5,8(sp)
   15408:	c39ff0ef          	jal	ra,15040 <eshift.part.3>
   1540c:	fddff06f          	j	153e8 <e113toe.isra.8+0xe0>

00015410 <emdnorm>:
   15410:	fe010113          	addi	sp,sp,-32
   15414:	00812c23          	sw	s0,24(sp)
   15418:	00912a23          	sw	s1,20(sp)
   1541c:	01212823          	sw	s2,16(sp)
